libgeopmd.so.1 libgeopmd1
 _ZGVN5geopm13PluginFactoryINS_7IOGroupEE18m_empty_dictionaryB5cxx11E@Base 2.0.0-1
 _ZN12GEOPMPackage10SessionKey12InternalSwapEPS0_@Base 2.0.0-1
 _ZN12GEOPMPackage10SessionKey14_InternalParseEPKcPN6google8protobuf8internal12ParseContextE@Base 2.0.0-1
 _ZN12GEOPMPackage10SessionKey16default_instanceEv@Base 2.0.0-1
 _ZN12GEOPMPackage10SessionKey21InitAsDefaultInstanceEv@Base 2.0.0-1
 _ZN12GEOPMPackage10SessionKey5ClearEv@Base 2.0.0-1
 _ZN12GEOPMPackage10SessionKey8CopyFromERKN6google8protobuf7MessageE@Base 2.0.0-1
 _ZN12GEOPMPackage10SessionKey8CopyFromERKS0_@Base 2.0.0-1
 _ZN12GEOPMPackage10SessionKey9ArenaDtorEPv@Base 2.0.0-1
 _ZN12GEOPMPackage10SessionKey9MergeFromERKN6google8protobuf7MessageE@Base 2.0.0-1
 _ZN12GEOPMPackage10SessionKey9MergeFromERKS0_@Base 2.0.0-1
 _ZN12GEOPMPackage10SessionKeyC1EPN6google8protobuf5ArenaE@Base 2.0.0-1
 _ZN12GEOPMPackage10SessionKeyC1ERKS0_@Base 2.0.0-1
 _ZN12GEOPMPackage10SessionKeyC2EPN6google8protobuf5ArenaE@Base 2.0.0-1
 _ZN12GEOPMPackage10SessionKeyC2ERKS0_@Base 2.0.0-1
 _ZN12GEOPMPackage10SessionKeyD0Ev@Base 2.0.0-1
 _ZN12GEOPMPackage10SessionKeyD1Ev@Base 2.0.0-1
 _ZN12GEOPMPackage10SessionKeyD2Ev@Base 2.0.0-1
 _ZN12GEOPMPackage11AccessLists12InternalSwapEPS0_@Base 2.0.0-1
 _ZN12GEOPMPackage11AccessLists14_InternalParseEPKcPN6google8protobuf8internal12ParseContextE@Base 2.0.0-1
 _ZN12GEOPMPackage11AccessLists16default_instanceEv@Base 2.0.0-1
 _ZN12GEOPMPackage11AccessLists21InitAsDefaultInstanceEv@Base 2.0.0-1
 _ZN12GEOPMPackage11AccessLists5ClearEv@Base 2.0.0-1
 _ZN12GEOPMPackage11AccessLists8CopyFromERKN6google8protobuf7MessageE@Base 2.0.0-1
 _ZN12GEOPMPackage11AccessLists8CopyFromERKS0_@Base 2.0.0-1
 _ZN12GEOPMPackage11AccessLists9ArenaDtorEPv@Base 2.0.0-1
 _ZN12GEOPMPackage11AccessLists9MergeFromERKN6google8protobuf7MessageE@Base 2.0.0-1
 _ZN12GEOPMPackage11AccessLists9MergeFromERKS0_@Base 2.0.0-1
 _ZN12GEOPMPackage11AccessListsC1EPN6google8protobuf5ArenaE@Base 2.0.0-1
 _ZN12GEOPMPackage11AccessListsC1ERKS0_@Base 2.0.0-1
 _ZN12GEOPMPackage11AccessListsC2EPN6google8protobuf5ArenaE@Base 2.0.0-1
 _ZN12GEOPMPackage11AccessListsC2ERKS0_@Base 2.0.0-1
 _ZN12GEOPMPackage11AccessListsD0Ev@Base 2.0.0-1
 _ZN12GEOPMPackage11AccessListsD1Ev@Base 2.0.0-1
 _ZN12GEOPMPackage11AccessListsD2Ev@Base 2.0.0-1
 _ZN12GEOPMPackage11InfoRequest12InternalSwapEPS0_@Base 2.0.0-1
 _ZN12GEOPMPackage11InfoRequest14_InternalParseEPKcPN6google8protobuf8internal12ParseContextE@Base 2.0.0-1
 _ZN12GEOPMPackage11InfoRequest16default_instanceEv@Base 2.0.0-1
 _ZN12GEOPMPackage11InfoRequest21InitAsDefaultInstanceEv@Base 2.0.0-1
 _ZN12GEOPMPackage11InfoRequest5ClearEv@Base 2.0.0-1
 _ZN12GEOPMPackage11InfoRequest8CopyFromERKN6google8protobuf7MessageE@Base 2.0.0-1
 _ZN12GEOPMPackage11InfoRequest8CopyFromERKS0_@Base 2.0.0-1
 _ZN12GEOPMPackage11InfoRequest9ArenaDtorEPv@Base 2.0.0-1
 _ZN12GEOPMPackage11InfoRequest9MergeFromERKN6google8protobuf7MessageE@Base 2.0.0-1
 _ZN12GEOPMPackage11InfoRequest9MergeFromERKS0_@Base 2.0.0-1
 _ZN12GEOPMPackage11InfoRequest9_Internal11session_keyEPKS0_@Base 2.0.0-1
 _ZN12GEOPMPackage11InfoRequestC1EPN6google8protobuf5ArenaE@Base 2.0.0-1
 _ZN12GEOPMPackage11InfoRequestC1ERKS0_@Base 2.0.0-1
 _ZN12GEOPMPackage11InfoRequestC2EPN6google8protobuf5ArenaE@Base 2.0.0-1
 _ZN12GEOPMPackage11InfoRequestC2ERKS0_@Base 2.0.0-1
 _ZN12GEOPMPackage11InfoRequestD0Ev@Base 2.0.0-1
 _ZN12GEOPMPackage11InfoRequestD1Ev@Base 2.0.0-1
 _ZN12GEOPMPackage11InfoRequestD2Ev@Base 2.0.0-1
 _ZN12GEOPMPackage11ReadRequest12InternalSwapEPS0_@Base 2.0.0-1
 _ZN12GEOPMPackage11ReadRequest14_InternalParseEPKcPN6google8protobuf8internal12ParseContextE@Base 2.0.0-1
 _ZN12GEOPMPackage11ReadRequest16default_instanceEv@Base 2.0.0-1
 _ZN12GEOPMPackage11ReadRequest21InitAsDefaultInstanceEv@Base 2.0.0-1
 _ZN12GEOPMPackage11ReadRequest5ClearEv@Base 2.0.0-1
 _ZN12GEOPMPackage11ReadRequest8CopyFromERKN6google8protobuf7MessageE@Base 2.0.0-1
 _ZN12GEOPMPackage11ReadRequest8CopyFromERKS0_@Base 2.0.0-1
 _ZN12GEOPMPackage11ReadRequest9ArenaDtorEPv@Base 2.0.0-1
 _ZN12GEOPMPackage11ReadRequest9MergeFromERKN6google8protobuf7MessageE@Base 2.0.0-1
 _ZN12GEOPMPackage11ReadRequest9MergeFromERKS0_@Base 2.0.0-1
 _ZN12GEOPMPackage11ReadRequest9_Internal11session_keyEPKS0_@Base 2.0.0-1
 _ZN12GEOPMPackage11ReadRequest9_Internal7requestEPKS0_@Base 2.0.0-1
 _ZN12GEOPMPackage11ReadRequestC1EPN6google8protobuf5ArenaE@Base 2.0.0-1
 _ZN12GEOPMPackage11ReadRequestC1ERKS0_@Base 2.0.0-1
 _ZN12GEOPMPackage11ReadRequestC2EPN6google8protobuf5ArenaE@Base 2.0.0-1
 _ZN12GEOPMPackage11ReadRequestC2ERKS0_@Base 2.0.0-1
 _ZN12GEOPMPackage11ReadRequestD0Ev@Base 2.0.0-1
 _ZN12GEOPMPackage11ReadRequestD1Ev@Base 2.0.0-1
 _ZN12GEOPMPackage11ReadRequestD2Ev@Base 2.0.0-1
 _ZN12GEOPMPackage12BatchRequest12InternalSwapEPS0_@Base 2.0.0-1
 _ZN12GEOPMPackage12BatchRequest14_InternalParseEPKcPN6google8protobuf8internal12ParseContextE@Base 2.0.0-1
 _ZN12GEOPMPackage12BatchRequest16default_instanceEv@Base 2.0.0-1
 _ZN12GEOPMPackage12BatchRequest21InitAsDefaultInstanceEv@Base 2.0.0-1
 _ZN12GEOPMPackage12BatchRequest5ClearEv@Base 2.0.0-1
 _ZN12GEOPMPackage12BatchRequest8CopyFromERKN6google8protobuf7MessageE@Base 2.0.0-1
 _ZN12GEOPMPackage12BatchRequest8CopyFromERKS0_@Base 2.0.0-1
 _ZN12GEOPMPackage12BatchRequest9ArenaDtorEPv@Base 2.0.0-1
 _ZN12GEOPMPackage12BatchRequest9MergeFromERKN6google8protobuf7MessageE@Base 2.0.0-1
 _ZN12GEOPMPackage12BatchRequest9MergeFromERKS0_@Base 2.0.0-1
 _ZN12GEOPMPackage12BatchRequest9_Internal11session_keyEPKS0_@Base 2.0.0-1
 _ZN12GEOPMPackage12BatchRequestC1EPN6google8protobuf5ArenaE@Base 2.0.0-1
 _ZN12GEOPMPackage12BatchRequestC1ERKS0_@Base 2.0.0-1
 _ZN12GEOPMPackage12BatchRequestC2EPN6google8protobuf5ArenaE@Base 2.0.0-1
 _ZN12GEOPMPackage12BatchRequestC2ERKS0_@Base 2.0.0-1
 _ZN12GEOPMPackage12BatchRequestD0Ev@Base 2.0.0-1
 _ZN12GEOPMPackage12BatchRequestD1Ev@Base 2.0.0-1
 _ZN12GEOPMPackage12BatchRequestD2Ev@Base 2.0.0-1
 _ZN12GEOPMPackage12BatchSession12InternalSwapEPS0_@Base 2.0.0-1
 _ZN12GEOPMPackage12BatchSession14_InternalParseEPKcPN6google8protobuf8internal12ParseContextE@Base 2.0.0-1
 _ZN12GEOPMPackage12BatchSession16default_instanceEv@Base 2.0.0-1
 _ZN12GEOPMPackage12BatchSession21InitAsDefaultInstanceEv@Base 2.0.0-1
 _ZN12GEOPMPackage12BatchSession5ClearEv@Base 2.0.0-1
 _ZN12GEOPMPackage12BatchSession8CopyFromERKN6google8protobuf7MessageE@Base 2.0.0-1
 _ZN12GEOPMPackage12BatchSession8CopyFromERKS0_@Base 2.0.0-1
 _ZN12GEOPMPackage12BatchSession9ArenaDtorEPv@Base 2.0.0-1
 _ZN12GEOPMPackage12BatchSession9MergeFromERKN6google8protobuf7MessageE@Base 2.0.0-1
 _ZN12GEOPMPackage12BatchSession9MergeFromERKS0_@Base 2.0.0-1
 _ZN12GEOPMPackage12BatchSession9_Internal11session_keyEPKS0_@Base 2.0.0-1
 _ZN12GEOPMPackage12BatchSession9_Internal9batch_keyEPKS0_@Base 2.0.0-1
 _ZN12GEOPMPackage12BatchSessionC1EPN6google8protobuf5ArenaE@Base 2.0.0-1
 _ZN12GEOPMPackage12BatchSessionC1ERKS0_@Base 2.0.0-1
 _ZN12GEOPMPackage12BatchSessionC2EPN6google8protobuf5ArenaE@Base 2.0.0-1
 _ZN12GEOPMPackage12BatchSessionC2ERKS0_@Base 2.0.0-1
 _ZN12GEOPMPackage12BatchSessionD0Ev@Base 2.0.0-1
 _ZN12GEOPMPackage12BatchSessionD1Ev@Base 2.0.0-1
 _ZN12GEOPMPackage12BatchSessionD2Ev@Base 2.0.0-1
 _ZN12GEOPMPackage12GEOPMService4Stub10ReadSignalEPN9grpc_impl13ClientContextERKNS_11ReadRequestEPNS_6SampleE@Base 2.0.0-1
 _ZN12GEOPMPackage12GEOPMService4Stub10StartBatchEPN9grpc_impl13ClientContextERKNS_12BatchRequestEPNS_8BatchKeyE@Base 2.0.0-1
 _ZN12GEOPMPackage12GEOPMService4Stub11OpenSessionEPN9grpc_impl13ClientContextERKNS_10SessionKeyEPS5_@Base 2.0.0-1
 _ZN12GEOPMPackage12GEOPMService4Stub11StopProfileEPN9grpc_impl13ClientContextERKNS_14ProfileRequestEPNS_5EmptyE@Base 2.0.0-1
 _ZN12GEOPMPackage12GEOPMService4Stub12CloseSessionEPN9grpc_impl13ClientContextERKNS_10SessionKeyEPNS_5EmptyE@Base 2.0.0-1
 _ZN12GEOPMPackage12GEOPMService4Stub12StartProfileEPN9grpc_impl13ClientContextERKNS_14ProfileRequestEPNS_5EmptyE@Base 2.0.0-1
 _ZN12GEOPMPackage12GEOPMService4Stub12TopoGetCacheEPN9grpc_impl13ClientContextERKNS_5EmptyEPNS_9TopoCacheE@Base 2.0.0-1
 _ZN12GEOPMPackage12GEOPMService4Stub12WriteControlEPN9grpc_impl13ClientContextERKNS_12WriteRequestEPNS_5EmptyE@Base 2.0.0-1
 _ZN12GEOPMPackage12GEOPMService4Stub13GetSignalInfoEPN9grpc_impl13ClientContextERKNS_11InfoRequestEPNS_14SignalInfoListE@Base 2.0.0-1
 _ZN12GEOPMPackage12GEOPMService4Stub13GetUserAccessEPN9grpc_impl13ClientContextERKNS_10SessionKeyEPNS_11AccessListsE@Base 2.0.0-1
 _ZN12GEOPMPackage12GEOPMService4Stub14GetControlInfoEPN9grpc_impl13ClientContextERKNS_11InfoRequestEPNS_15ControlInfoListE@Base 2.0.0-1
 _ZN12GEOPMPackage12GEOPMService4Stub14GetProfilePidsEPN9grpc_impl13ClientContextERKNS_14ProfileRequestEPNS_7PidListE@Base 2.0.0-1
 _ZN12GEOPMPackage12GEOPMService4Stub17AsyncStopBatchRawEPN9grpc_impl13ClientContextERKNS_12BatchSessionEPNS2_15CompletionQueueE@Base 2.0.0-1
 _ZN12GEOPMPackage12GEOPMService4Stub18AsyncReadSignalRawEPN9grpc_impl13ClientContextERKNS_11ReadRequestEPNS2_15CompletionQueueE@Base 2.0.0-1
 _ZN12GEOPMPackage12GEOPMService4Stub18AsyncStartBatchRawEPN9grpc_impl13ClientContextERKNS_12BatchRequestEPNS2_15CompletionQueueE@Base 2.0.0-1
 _ZN12GEOPMPackage12GEOPMService4Stub18experimental_async10ReadSignalEPN9grpc_impl13ClientContextEPKN4grpc10ByteBufferEPNS_6SampleEPNS3_18ClientUnaryReactorE@Base 2.0.0-1
 _ZN12GEOPMPackage12GEOPMService4Stub18experimental_async10ReadSignalEPN9grpc_impl13ClientContextEPKN4grpc10ByteBufferEPNS_6SampleESt8functionIFvNS6_6StatusEEE@Base 2.0.0-1
 _ZN12GEOPMPackage12GEOPMService4Stub18experimental_async10ReadSignalEPN9grpc_impl13ClientContextEPKNS_11ReadRequestEPNS_6SampleEPNS3_18ClientUnaryReactorE@Base 2.0.0-1
 _ZN12GEOPMPackage12GEOPMService4Stub18experimental_async10ReadSignalEPN9grpc_impl13ClientContextEPKNS_11ReadRequestEPNS_6SampleESt8functionIFvN4grpc6StatusEEE@Base 2.0.0-1
 _ZN12GEOPMPackage12GEOPMService4Stub18experimental_async10StartBatchEPN9grpc_impl13ClientContextEPKN4grpc10ByteBufferEPNS_8BatchKeyEPNS3_18ClientUnaryReactorE@Base 2.0.0-1
 _ZN12GEOPMPackage12GEOPMService4Stub18experimental_async10StartBatchEPN9grpc_impl13ClientContextEPKN4grpc10ByteBufferEPNS_8BatchKeyESt8functionIFvNS6_6StatusEEE@Base 2.0.0-1
 _ZN12GEOPMPackage12GEOPMService4Stub18experimental_async10StartBatchEPN9grpc_impl13ClientContextEPKNS_12BatchRequestEPNS_8BatchKeyEPNS3_18ClientUnaryReactorE@Base 2.0.0-1
 _ZN12GEOPMPackage12GEOPMService4Stub18experimental_async10StartBatchEPN9grpc_impl13ClientContextEPKNS_12BatchRequestEPNS_8BatchKeyESt8functionIFvN4grpc6StatusEEE@Base 2.0.0-1
 _ZN12GEOPMPackage12GEOPMService4Stub18experimental_async11OpenSessionEPN9grpc_impl13ClientContextEPKN4grpc10ByteBufferEPNS_10SessionKeyEPNS3_18ClientUnaryReactorE@Base 2.0.0-1
 _ZN12GEOPMPackage12GEOPMService4Stub18experimental_async11OpenSessionEPN9grpc_impl13ClientContextEPKN4grpc10ByteBufferEPNS_10SessionKeyESt8functionIFvNS6_6StatusEEE@Base 2.0.0-1
 _ZN12GEOPMPackage12GEOPMService4Stub18experimental_async11OpenSessionEPN9grpc_impl13ClientContextEPKNS_10SessionKeyEPS6_PNS3_18ClientUnaryReactorE@Base 2.0.0-1
 _ZN12GEOPMPackage12GEOPMService4Stub18experimental_async11OpenSessionEPN9grpc_impl13ClientContextEPKNS_10SessionKeyEPS6_St8functionIFvN4grpc6StatusEEE@Base 2.0.0-1
 _ZN12GEOPMPackage12GEOPMService4Stub18experimental_async11StopProfileEPN9grpc_impl13ClientContextEPKN4grpc10ByteBufferEPNS_5EmptyEPNS3_18ClientUnaryReactorE@Base 2.0.0-1
 _ZN12GEOPMPackage12GEOPMService4Stub18experimental_async11StopProfileEPN9grpc_impl13ClientContextEPKN4grpc10ByteBufferEPNS_5EmptyESt8functionIFvNS6_6StatusEEE@Base 2.0.0-1
 _ZN12GEOPMPackage12GEOPMService4Stub18experimental_async11StopProfileEPN9grpc_impl13ClientContextEPKNS_14ProfileRequestEPNS_5EmptyEPNS3_18ClientUnaryReactorE@Base 2.0.0-1
 _ZN12GEOPMPackage12GEOPMService4Stub18experimental_async11StopProfileEPN9grpc_impl13ClientContextEPKNS_14ProfileRequestEPNS_5EmptyESt8functionIFvN4grpc6StatusEEE@Base 2.0.0-1
 _ZN12GEOPMPackage12GEOPMService4Stub18experimental_async12CloseSessionEPN9grpc_impl13ClientContextEPKN4grpc10ByteBufferEPNS_5EmptyEPNS3_18ClientUnaryReactorE@Base 2.0.0-1
 _ZN12GEOPMPackage12GEOPMService4Stub18experimental_async12CloseSessionEPN9grpc_impl13ClientContextEPKN4grpc10ByteBufferEPNS_5EmptyESt8functionIFvNS6_6StatusEEE@Base 2.0.0-1
 _ZN12GEOPMPackage12GEOPMService4Stub18experimental_async12CloseSessionEPN9grpc_impl13ClientContextEPKNS_10SessionKeyEPNS_5EmptyEPNS3_18ClientUnaryReactorE@Base 2.0.0-1
 _ZN12GEOPMPackage12GEOPMService4Stub18experimental_async12CloseSessionEPN9grpc_impl13ClientContextEPKNS_10SessionKeyEPNS_5EmptyESt8functionIFvN4grpc6StatusEEE@Base 2.0.0-1
 _ZN12GEOPMPackage12GEOPMService4Stub18experimental_async12StartProfileEPN9grpc_impl13ClientContextEPKN4grpc10ByteBufferEPNS_5EmptyEPNS3_18ClientUnaryReactorE@Base 2.0.0-1
 _ZN12GEOPMPackage12GEOPMService4Stub18experimental_async12StartProfileEPN9grpc_impl13ClientContextEPKN4grpc10ByteBufferEPNS_5EmptyESt8functionIFvNS6_6StatusEEE@Base 2.0.0-1
 _ZN12GEOPMPackage12GEOPMService4Stub18experimental_async12StartProfileEPN9grpc_impl13ClientContextEPKNS_14ProfileRequestEPNS_5EmptyEPNS3_18ClientUnaryReactorE@Base 2.0.0-1
 _ZN12GEOPMPackage12GEOPMService4Stub18experimental_async12StartProfileEPN9grpc_impl13ClientContextEPKNS_14ProfileRequestEPNS_5EmptyESt8functionIFvN4grpc6StatusEEE@Base 2.0.0-1
 _ZN12GEOPMPackage12GEOPMService4Stub18experimental_async12TopoGetCacheEPN9grpc_impl13ClientContextEPKN4grpc10ByteBufferEPNS_9TopoCacheEPNS3_18ClientUnaryReactorE@Base 2.0.0-1
 _ZN12GEOPMPackage12GEOPMService4Stub18experimental_async12TopoGetCacheEPN9grpc_impl13ClientContextEPKN4grpc10ByteBufferEPNS_9TopoCacheESt8functionIFvNS6_6StatusEEE@Base 2.0.0-1
 _ZN12GEOPMPackage12GEOPMService4Stub18experimental_async12TopoGetCacheEPN9grpc_impl13ClientContextEPKNS_5EmptyEPNS_9TopoCacheEPNS3_18ClientUnaryReactorE@Base 2.0.0-1
 _ZN12GEOPMPackage12GEOPMService4Stub18experimental_async12TopoGetCacheEPN9grpc_impl13ClientContextEPKNS_5EmptyEPNS_9TopoCacheESt8functionIFvN4grpc6StatusEEE@Base 2.0.0-1
 _ZN12GEOPMPackage12GEOPMService4Stub18experimental_async12WriteControlEPN9grpc_impl13ClientContextEPKN4grpc10ByteBufferEPNS_5EmptyEPNS3_18ClientUnaryReactorE@Base 2.0.0-1
 _ZN12GEOPMPackage12GEOPMService4Stub18experimental_async12WriteControlEPN9grpc_impl13ClientContextEPKN4grpc10ByteBufferEPNS_5EmptyESt8functionIFvNS6_6StatusEEE@Base 2.0.0-1
 _ZN12GEOPMPackage12GEOPMService4Stub18experimental_async12WriteControlEPN9grpc_impl13ClientContextEPKNS_12WriteRequestEPNS_5EmptyEPNS3_18ClientUnaryReactorE@Base 2.0.0-1
 _ZN12GEOPMPackage12GEOPMService4Stub18experimental_async12WriteControlEPN9grpc_impl13ClientContextEPKNS_12WriteRequestEPNS_5EmptyESt8functionIFvN4grpc6StatusEEE@Base 2.0.0-1
 _ZN12GEOPMPackage12GEOPMService4Stub18experimental_async13GetSignalInfoEPN9grpc_impl13ClientContextEPKN4grpc10ByteBufferEPNS_14SignalInfoListEPNS3_18ClientUnaryReactorE@Base 2.0.0-1
 _ZN12GEOPMPackage12GEOPMService4Stub18experimental_async13GetSignalInfoEPN9grpc_impl13ClientContextEPKN4grpc10ByteBufferEPNS_14SignalInfoListESt8functionIFvNS6_6StatusEEE@Base 2.0.0-1
 _ZN12GEOPMPackage12GEOPMService4Stub18experimental_async13GetSignalInfoEPN9grpc_impl13ClientContextEPKNS_11InfoRequestEPNS_14SignalInfoListEPNS3_18ClientUnaryReactorE@Base 2.0.0-1
 _ZN12GEOPMPackage12GEOPMService4Stub18experimental_async13GetSignalInfoEPN9grpc_impl13ClientContextEPKNS_11InfoRequestEPNS_14SignalInfoListESt8functionIFvN4grpc6StatusEEE@Base 2.0.0-1
 _ZN12GEOPMPackage12GEOPMService4Stub18experimental_async13GetUserAccessEPN9grpc_impl13ClientContextEPKN4grpc10ByteBufferEPNS_11AccessListsEPNS3_18ClientUnaryReactorE@Base 2.0.0-1
 _ZN12GEOPMPackage12GEOPMService4Stub18experimental_async13GetUserAccessEPN9grpc_impl13ClientContextEPKN4grpc10ByteBufferEPNS_11AccessListsESt8functionIFvNS6_6StatusEEE@Base 2.0.0-1
 _ZN12GEOPMPackage12GEOPMService4Stub18experimental_async13GetUserAccessEPN9grpc_impl13ClientContextEPKNS_10SessionKeyEPNS_11AccessListsEPNS3_18ClientUnaryReactorE@Base 2.0.0-1
 _ZN12GEOPMPackage12GEOPMService4Stub18experimental_async13GetUserAccessEPN9grpc_impl13ClientContextEPKNS_10SessionKeyEPNS_11AccessListsESt8functionIFvN4grpc6StatusEEE@Base 2.0.0-1
 _ZN12GEOPMPackage12GEOPMService4Stub18experimental_async14GetControlInfoEPN9grpc_impl13ClientContextEPKN4grpc10ByteBufferEPNS_15ControlInfoListEPNS3_18ClientUnaryReactorE@Base 2.0.0-1
 _ZN12GEOPMPackage12GEOPMService4Stub18experimental_async14GetControlInfoEPN9grpc_impl13ClientContextEPKN4grpc10ByteBufferEPNS_15ControlInfoListESt8functionIFvNS6_6StatusEEE@Base 2.0.0-1
 _ZN12GEOPMPackage12GEOPMService4Stub18experimental_async14GetControlInfoEPN9grpc_impl13ClientContextEPKNS_11InfoRequestEPNS_15ControlInfoListEPNS3_18ClientUnaryReactorE@Base 2.0.0-1
 _ZN12GEOPMPackage12GEOPMService4Stub18experimental_async14GetControlInfoEPN9grpc_impl13ClientContextEPKNS_11InfoRequestEPNS_15ControlInfoListESt8functionIFvN4grpc6StatusEEE@Base 2.0.0-1
 _ZN12GEOPMPackage12GEOPMService4Stub18experimental_async14GetProfilePidsEPN9grpc_impl13ClientContextEPKN4grpc10ByteBufferEPNS_7PidListEPNS3_18ClientUnaryReactorE@Base 2.0.0-1
 _ZN12GEOPMPackage12GEOPMService4Stub18experimental_async14GetProfilePidsEPN9grpc_impl13ClientContextEPKN4grpc10ByteBufferEPNS_7PidListESt8functionIFvNS6_6StatusEEE@Base 2.0.0-1
 _ZN12GEOPMPackage12GEOPMService4Stub18experimental_async14GetProfilePidsEPN9grpc_impl13ClientContextEPKNS_14ProfileRequestEPNS_7PidListEPNS3_18ClientUnaryReactorE@Base 2.0.0-1
 _ZN12GEOPMPackage12GEOPMService4Stub18experimental_async14GetProfilePidsEPN9grpc_impl13ClientContextEPKNS_14ProfileRequestEPNS_7PidListESt8functionIFvN4grpc6StatusEEE@Base 2.0.0-1
 _ZN12GEOPMPackage12GEOPMService4Stub18experimental_async21GetProfileRegionNamesEPN9grpc_impl13ClientContextEPKN4grpc10ByteBufferEPNS_8NameListEPNS3_18ClientUnaryReactorE@Base 2.0.0-1
 _ZN12GEOPMPackage12GEOPMService4Stub18experimental_async21GetProfileRegionNamesEPN9grpc_impl13ClientContextEPKN4grpc10ByteBufferEPNS_8NameListESt8functionIFvNS6_6StatusEEE@Base 2.0.0-1
 _ZN12GEOPMPackage12GEOPMService4Stub18experimental_async21GetProfileRegionNamesEPN9grpc_impl13ClientContextEPKNS_14ProfileRequestEPNS_8NameListEPNS3_18ClientUnaryReactorE@Base 2.0.0-1
 _ZN12GEOPMPackage12GEOPMService4Stub18experimental_async21GetProfileRegionNamesEPN9grpc_impl13ClientContextEPKNS_14ProfileRequestEPNS_8NameListESt8functionIFvN4grpc6StatusEEE@Base 2.0.0-1
 _ZN12GEOPMPackage12GEOPMService4Stub18experimental_async9StopBatchEPN9grpc_impl13ClientContextEPKN4grpc10ByteBufferEPNS_5EmptyEPNS3_18ClientUnaryReactorE@Base 2.0.0-1
 _ZN12GEOPMPackage12GEOPMService4Stub18experimental_async9StopBatchEPN9grpc_impl13ClientContextEPKN4grpc10ByteBufferEPNS_5EmptyESt8functionIFvNS6_6StatusEEE@Base 2.0.0-1
 _ZN12GEOPMPackage12GEOPMService4Stub18experimental_async9StopBatchEPN9grpc_impl13ClientContextEPKNS_12BatchSessionEPNS_5EmptyEPNS3_18ClientUnaryReactorE@Base 2.0.0-1
 _ZN12GEOPMPackage12GEOPMService4Stub18experimental_async9StopBatchEPN9grpc_impl13ClientContextEPKNS_12BatchSessionEPNS_5EmptyESt8functionIFvN4grpc6StatusEEE@Base 2.0.0-1
 _ZN12GEOPMPackage12GEOPMService4Stub19AsyncOpenSessionRawEPN9grpc_impl13ClientContextERKNS_10SessionKeyEPNS2_15CompletionQueueE@Base 2.0.0-1
 _ZN12GEOPMPackage12GEOPMService4Stub19AsyncStopProfileRawEPN9grpc_impl13ClientContextERKNS_14ProfileRequestEPNS2_15CompletionQueueE@Base 2.0.0-1
 _ZN12GEOPMPackage12GEOPMService4Stub20AsyncCloseSessionRawEPN9grpc_impl13ClientContextERKNS_10SessionKeyEPNS2_15CompletionQueueE@Base 2.0.0-1
 _ZN12GEOPMPackage12GEOPMService4Stub20AsyncStartProfileRawEPN9grpc_impl13ClientContextERKNS_14ProfileRequestEPNS2_15CompletionQueueE@Base 2.0.0-1
 _ZN12GEOPMPackage12GEOPMService4Stub20AsyncTopoGetCacheRawEPN9grpc_impl13ClientContextERKNS_5EmptyEPNS2_15CompletionQueueE@Base 2.0.0-1
 _ZN12GEOPMPackage12GEOPMService4Stub20AsyncWriteControlRawEPN9grpc_impl13ClientContextERKNS_12WriteRequestEPNS2_15CompletionQueueE@Base 2.0.0-1
 _ZN12GEOPMPackage12GEOPMService4Stub21AsyncGetSignalInfoRawEPN9grpc_impl13ClientContextERKNS_11InfoRequestEPNS2_15CompletionQueueE@Base 2.0.0-1
 _ZN12GEOPMPackage12GEOPMService4Stub21AsyncGetUserAccessRawEPN9grpc_impl13ClientContextERKNS_10SessionKeyEPNS2_15CompletionQueueE@Base 2.0.0-1
 _ZN12GEOPMPackage12GEOPMService4Stub21GetProfileRegionNamesEPN9grpc_impl13ClientContextERKNS_14ProfileRequestEPNS_8NameListE@Base 2.0.0-1
 _ZN12GEOPMPackage12GEOPMService4Stub22AsyncGetControlInfoRawEPN9grpc_impl13ClientContextERKNS_11InfoRequestEPNS2_15CompletionQueueE@Base 2.0.0-1
 _ZN12GEOPMPackage12GEOPMService4Stub22AsyncGetProfilePidsRawEPN9grpc_impl13ClientContextERKNS_14ProfileRequestEPNS2_15CompletionQueueE@Base 2.0.0-1
 _ZN12GEOPMPackage12GEOPMService4Stub24PrepareAsyncStopBatchRawEPN9grpc_impl13ClientContextERKNS_12BatchSessionEPNS2_15CompletionQueueE@Base 2.0.0-1
 _ZN12GEOPMPackage12GEOPMService4Stub25PrepareAsyncReadSignalRawEPN9grpc_impl13ClientContextERKNS_11ReadRequestEPNS2_15CompletionQueueE@Base 2.0.0-1
 _ZN12GEOPMPackage12GEOPMService4Stub25PrepareAsyncStartBatchRawEPN9grpc_impl13ClientContextERKNS_12BatchRequestEPNS2_15CompletionQueueE@Base 2.0.0-1
 _ZN12GEOPMPackage12GEOPMService4Stub26PrepareAsyncOpenSessionRawEPN9grpc_impl13ClientContextERKNS_10SessionKeyEPNS2_15CompletionQueueE@Base 2.0.0-1
 _ZN12GEOPMPackage12GEOPMService4Stub26PrepareAsyncStopProfileRawEPN9grpc_impl13ClientContextERKNS_14ProfileRequestEPNS2_15CompletionQueueE@Base 2.0.0-1
 _ZN12GEOPMPackage12GEOPMService4Stub27PrepareAsyncCloseSessionRawEPN9grpc_impl13ClientContextERKNS_10SessionKeyEPNS2_15CompletionQueueE@Base 2.0.0-1
 _ZN12GEOPMPackage12GEOPMService4Stub27PrepareAsyncStartProfileRawEPN9grpc_impl13ClientContextERKNS_14ProfileRequestEPNS2_15CompletionQueueE@Base 2.0.0-1
 _ZN12GEOPMPackage12GEOPMService4Stub27PrepareAsyncTopoGetCacheRawEPN9grpc_impl13ClientContextERKNS_5EmptyEPNS2_15CompletionQueueE@Base 2.0.0-1
 _ZN12GEOPMPackage12GEOPMService4Stub27PrepareAsyncWriteControlRawEPN9grpc_impl13ClientContextERKNS_12WriteRequestEPNS2_15CompletionQueueE@Base 2.0.0-1
 _ZN12GEOPMPackage12GEOPMService4Stub28PrepareAsyncGetSignalInfoRawEPN9grpc_impl13ClientContextERKNS_11InfoRequestEPNS2_15CompletionQueueE@Base 2.0.0-1
 _ZN12GEOPMPackage12GEOPMService4Stub28PrepareAsyncGetUserAccessRawEPN9grpc_impl13ClientContextERKNS_10SessionKeyEPNS2_15CompletionQueueE@Base 2.0.0-1
 _ZN12GEOPMPackage12GEOPMService4Stub29AsyncGetProfileRegionNamesRawEPN9grpc_impl13ClientContextERKNS_14ProfileRequestEPNS2_15CompletionQueueE@Base 2.0.0-1
 _ZN12GEOPMPackage12GEOPMService4Stub29PrepareAsyncGetControlInfoRawEPN9grpc_impl13ClientContextERKNS_11InfoRequestEPNS2_15CompletionQueueE@Base 2.0.0-1
 _ZN12GEOPMPackage12GEOPMService4Stub29PrepareAsyncGetProfilePidsRawEPN9grpc_impl13ClientContextERKNS_14ProfileRequestEPNS2_15CompletionQueueE@Base 2.0.0-1
 _ZN12GEOPMPackage12GEOPMService4Stub36PrepareAsyncGetProfileRegionNamesRawEPN9grpc_impl13ClientContextERKNS_14ProfileRequestEPNS2_15CompletionQueueE@Base 2.0.0-1
 _ZN12GEOPMPackage12GEOPMService4Stub9StopBatchEPN9grpc_impl13ClientContextERKNS_12BatchSessionEPNS_5EmptyE@Base 2.0.0-1
 _ZN12GEOPMPackage12GEOPMService4StubC1ERKSt10shared_ptrIN4grpc16ChannelInterfaceEE@Base 2.0.0-1
 _ZN12GEOPMPackage12GEOPMService4StubC2ERKSt10shared_ptrIN4grpc16ChannelInterfaceEE@Base 2.0.0-1
 _ZN12GEOPMPackage12GEOPMService7NewStubERKSt10shared_ptrIN4grpc16ChannelInterfaceEERKNS2_11StubOptionsE@Base 2.0.0-1
 _ZN12GEOPMPackage12GEOPMService7Service10ReadSignalEPN9grpc_impl13ServerContextEPKNS_11ReadRequestEPNS_6SampleE@Base 2.0.0-1
 _ZN12GEOPMPackage12GEOPMService7Service10StartBatchEPN9grpc_impl13ServerContextEPKNS_12BatchRequestEPNS_8BatchKeyE@Base 2.0.0-1
 _ZN12GEOPMPackage12GEOPMService7Service11OpenSessionEPN9grpc_impl13ServerContextEPKNS_10SessionKeyEPS5_@Base 2.0.0-1
 _ZN12GEOPMPackage12GEOPMService7Service11StopProfileEPN9grpc_impl13ServerContextEPKNS_14ProfileRequestEPNS_5EmptyE@Base 2.0.0-1
 _ZN12GEOPMPackage12GEOPMService7Service12CloseSessionEPN9grpc_impl13ServerContextEPKNS_10SessionKeyEPNS_5EmptyE@Base 2.0.0-1
 _ZN12GEOPMPackage12GEOPMService7Service12StartProfileEPN9grpc_impl13ServerContextEPKNS_14ProfileRequestEPNS_5EmptyE@Base 2.0.0-1
 _ZN12GEOPMPackage12GEOPMService7Service12TopoGetCacheEPN9grpc_impl13ServerContextEPKNS_5EmptyEPNS_9TopoCacheE@Base 2.0.0-1
 _ZN12GEOPMPackage12GEOPMService7Service12WriteControlEPN9grpc_impl13ServerContextEPKNS_12WriteRequestEPNS_5EmptyE@Base 2.0.0-1
 _ZN12GEOPMPackage12GEOPMService7Service13GetSignalInfoEPN9grpc_impl13ServerContextEPKNS_11InfoRequestEPNS_14SignalInfoListE@Base 2.0.0-1
 _ZN12GEOPMPackage12GEOPMService7Service13GetUserAccessEPN9grpc_impl13ServerContextEPKNS_10SessionKeyEPNS_11AccessListsE@Base 2.0.0-1
 _ZN12GEOPMPackage12GEOPMService7Service14GetControlInfoEPN9grpc_impl13ServerContextEPKNS_11InfoRequestEPNS_15ControlInfoListE@Base 2.0.0-1
 _ZN12GEOPMPackage12GEOPMService7Service14GetProfilePidsEPN9grpc_impl13ServerContextEPKNS_14ProfileRequestEPNS_7PidListE@Base 2.0.0-1
 _ZN12GEOPMPackage12GEOPMService7Service21GetProfileRegionNamesEPN9grpc_impl13ServerContextEPKNS_14ProfileRequestEPNS_8NameListE@Base 2.0.0-1
 _ZN12GEOPMPackage12GEOPMService7Service9StopBatchEPN9grpc_impl13ServerContextEPKNS_12BatchSessionEPNS_5EmptyE@Base 2.0.0-1
 _ZN12GEOPMPackage12GEOPMService7ServiceC1Ev@Base 2.0.0-1
 _ZN12GEOPMPackage12GEOPMService7ServiceC2Ev@Base 2.0.0-1
 _ZN12GEOPMPackage12GEOPMService7ServiceD0Ev@Base 2.0.0-1
 _ZN12GEOPMPackage12GEOPMService7ServiceD1Ev@Base 2.0.0-1
 _ZN12GEOPMPackage12GEOPMService7ServiceD2Ev@Base 2.0.0-1
 _ZN12GEOPMPackage12WriteRequest12InternalSwapEPS0_@Base 2.0.0-1
 _ZN12GEOPMPackage12WriteRequest14_InternalParseEPKcPN6google8protobuf8internal12ParseContextE@Base 2.0.0-1
 _ZN12GEOPMPackage12WriteRequest16default_instanceEv@Base 2.0.0-1
 _ZN12GEOPMPackage12WriteRequest21InitAsDefaultInstanceEv@Base 2.0.0-1
 _ZN12GEOPMPackage12WriteRequest5ClearEv@Base 2.0.0-1
 _ZN12GEOPMPackage12WriteRequest8CopyFromERKN6google8protobuf7MessageE@Base 2.0.0-1
 _ZN12GEOPMPackage12WriteRequest8CopyFromERKS0_@Base 2.0.0-1
 _ZN12GEOPMPackage12WriteRequest9ArenaDtorEPv@Base 2.0.0-1
 _ZN12GEOPMPackage12WriteRequest9MergeFromERKN6google8protobuf7MessageE@Base 2.0.0-1
 _ZN12GEOPMPackage12WriteRequest9MergeFromERKS0_@Base 2.0.0-1
 _ZN12GEOPMPackage12WriteRequest9_Internal11session_keyEPKS0_@Base 2.0.0-1
 _ZN12GEOPMPackage12WriteRequest9_Internal7requestEPKS0_@Base 2.0.0-1
 _ZN12GEOPMPackage12WriteRequestC1EPN6google8protobuf5ArenaE@Base 2.0.0-1
 _ZN12GEOPMPackage12WriteRequestC1ERKS0_@Base 2.0.0-1
 _ZN12GEOPMPackage12WriteRequestC2EPN6google8protobuf5ArenaE@Base 2.0.0-1
 _ZN12GEOPMPackage12WriteRequestC2ERKS0_@Base 2.0.0-1
 _ZN12GEOPMPackage12WriteRequestD0Ev@Base 2.0.0-1
 _ZN12GEOPMPackage12WriteRequestD1Ev@Base 2.0.0-1
 _ZN12GEOPMPackage12WriteRequestD2Ev@Base 2.0.0-1
 _ZN12GEOPMPackage14Domain_IsValidEi@Base 2.0.0-1
 _ZN12GEOPMPackage14ProfileRequest12InternalSwapEPS0_@Base 2.0.0-1
 _ZN12GEOPMPackage14ProfileRequest14_InternalParseEPKcPN6google8protobuf8internal12ParseContextE@Base 2.0.0-1
 _ZN12GEOPMPackage14ProfileRequest16default_instanceEv@Base 2.0.0-1
 _ZN12GEOPMPackage14ProfileRequest21InitAsDefaultInstanceEv@Base 2.0.0-1
 _ZN12GEOPMPackage14ProfileRequest5ClearEv@Base 2.0.0-1
 _ZN12GEOPMPackage14ProfileRequest8CopyFromERKN6google8protobuf7MessageE@Base 2.0.0-1
 _ZN12GEOPMPackage14ProfileRequest8CopyFromERKS0_@Base 2.0.0-1
 _ZN12GEOPMPackage14ProfileRequest9ArenaDtorEPv@Base 2.0.0-1
 _ZN12GEOPMPackage14ProfileRequest9MergeFromERKN6google8protobuf7MessageE@Base 2.0.0-1
 _ZN12GEOPMPackage14ProfileRequest9MergeFromERKS0_@Base 2.0.0-1
 _ZN12GEOPMPackage14ProfileRequest9_Internal11session_keyEPKS0_@Base 2.0.0-1
 _ZN12GEOPMPackage14ProfileRequestC1EPN6google8protobuf5ArenaE@Base 2.0.0-1
 _ZN12GEOPMPackage14ProfileRequestC1ERKS0_@Base 2.0.0-1
 _ZN12GEOPMPackage14ProfileRequestC2EPN6google8protobuf5ArenaE@Base 2.0.0-1
 _ZN12GEOPMPackage14ProfileRequestC2ERKS0_@Base 2.0.0-1
 _ZN12GEOPMPackage14ProfileRequestD0Ev@Base 2.0.0-1
 _ZN12GEOPMPackage14ProfileRequestD1Ev@Base 2.0.0-1
 _ZN12GEOPMPackage14ProfileRequestD2Ev@Base 2.0.0-1
 _ZN12GEOPMPackage14SignalInfoList12InternalSwapEPS0_@Base 2.0.0-1
 _ZN12GEOPMPackage14SignalInfoList14_InternalParseEPKcPN6google8protobuf8internal12ParseContextE@Base 2.0.0-1
 _ZN12GEOPMPackage14SignalInfoList16default_instanceEv@Base 2.0.0-1
 _ZN12GEOPMPackage14SignalInfoList21InitAsDefaultInstanceEv@Base 2.0.0-1
 _ZN12GEOPMPackage14SignalInfoList5ClearEv@Base 2.0.0-1
 _ZN12GEOPMPackage14SignalInfoList8CopyFromERKN6google8protobuf7MessageE@Base 2.0.0-1
 _ZN12GEOPMPackage14SignalInfoList8CopyFromERKS0_@Base 2.0.0-1
 _ZN12GEOPMPackage14SignalInfoList9ArenaDtorEPv@Base 2.0.0-1
 _ZN12GEOPMPackage14SignalInfoList9MergeFromERKN6google8protobuf7MessageE@Base 2.0.0-1
 _ZN12GEOPMPackage14SignalInfoList9MergeFromERKS0_@Base 2.0.0-1
 _ZN12GEOPMPackage14SignalInfoListC1EPN6google8protobuf5ArenaE@Base 2.0.0-1
 _ZN12GEOPMPackage14SignalInfoListC1ERKS0_@Base 2.0.0-1
 _ZN12GEOPMPackage14SignalInfoListC2EPN6google8protobuf5ArenaE@Base 2.0.0-1
 _ZN12GEOPMPackage14SignalInfoListC2ERKS0_@Base 2.0.0-1
 _ZN12GEOPMPackage14SignalInfoListD0Ev@Base 2.0.0-1
 _ZN12GEOPMPackage14SignalInfoListD1Ev@Base 2.0.0-1
 _ZN12GEOPMPackage14SignalInfoListD2Ev@Base 2.0.0-1
 _ZN12GEOPMPackage15ControlInfoList12InternalSwapEPS0_@Base 2.0.0-1
 _ZN12GEOPMPackage15ControlInfoList14_InternalParseEPKcPN6google8protobuf8internal12ParseContextE@Base 2.0.0-1
 _ZN12GEOPMPackage15ControlInfoList16default_instanceEv@Base 2.0.0-1
 _ZN12GEOPMPackage15ControlInfoList21InitAsDefaultInstanceEv@Base 2.0.0-1
 _ZN12GEOPMPackage15ControlInfoList5ClearEv@Base 2.0.0-1
 _ZN12GEOPMPackage15ControlInfoList8CopyFromERKN6google8protobuf7MessageE@Base 2.0.0-1
 _ZN12GEOPMPackage15ControlInfoList8CopyFromERKS0_@Base 2.0.0-1
 _ZN12GEOPMPackage15ControlInfoList9ArenaDtorEPv@Base 2.0.0-1
 _ZN12GEOPMPackage15ControlInfoList9MergeFromERKN6google8protobuf7MessageE@Base 2.0.0-1
 _ZN12GEOPMPackage15ControlInfoList9MergeFromERKS0_@Base 2.0.0-1
 _ZN12GEOPMPackage15ControlInfoListC1EPN6google8protobuf5ArenaE@Base 2.0.0-1
 _ZN12GEOPMPackage15ControlInfoListC1ERKS0_@Base 2.0.0-1
 _ZN12GEOPMPackage15ControlInfoListC2EPN6google8protobuf5ArenaE@Base 2.0.0-1
 _ZN12GEOPMPackage15ControlInfoListC2ERKS0_@Base 2.0.0-1
 _ZN12GEOPMPackage15ControlInfoListD0Ev@Base 2.0.0-1
 _ZN12GEOPMPackage15ControlInfoListD1Ev@Base 2.0.0-1
 _ZN12GEOPMPackage15ControlInfoListD2Ev@Base 2.0.0-1
 _ZN12GEOPMPackage15PlatformRequest12InternalSwapEPS0_@Base 2.0.0-1
 _ZN12GEOPMPackage15PlatformRequest14_InternalParseEPKcPN6google8protobuf8internal12ParseContextE@Base 2.0.0-1
 _ZN12GEOPMPackage15PlatformRequest16default_instanceEv@Base 2.0.0-1
 _ZN12GEOPMPackage15PlatformRequest21InitAsDefaultInstanceEv@Base 2.0.0-1
 _ZN12GEOPMPackage15PlatformRequest5ClearEv@Base 2.0.0-1
 _ZN12GEOPMPackage15PlatformRequest8CopyFromERKN6google8protobuf7MessageE@Base 2.0.0-1
 _ZN12GEOPMPackage15PlatformRequest8CopyFromERKS0_@Base 2.0.0-1
 _ZN12GEOPMPackage15PlatformRequest9ArenaDtorEPv@Base 2.0.0-1
 _ZN12GEOPMPackage15PlatformRequest9MergeFromERKN6google8protobuf7MessageE@Base 2.0.0-1
 _ZN12GEOPMPackage15PlatformRequest9MergeFromERKS0_@Base 2.0.0-1
 _ZN12GEOPMPackage15PlatformRequestC1EPN6google8protobuf5ArenaE@Base 2.0.0-1
 _ZN12GEOPMPackage15PlatformRequestC1ERKS0_@Base 2.0.0-1
 _ZN12GEOPMPackage15PlatformRequestC2EPN6google8protobuf5ArenaE@Base 2.0.0-1
 _ZN12GEOPMPackage15PlatformRequestC2ERKS0_@Base 2.0.0-1
 _ZN12GEOPMPackage15PlatformRequestD0Ev@Base 2.0.0-1
 _ZN12GEOPMPackage15PlatformRequestD1Ev@Base 2.0.0-1
 _ZN12GEOPMPackage15PlatformRequestD2Ev@Base 2.0.0-1
 _ZN12GEOPMPackage17Domain_descriptorEv@Base 2.0.0-1
 _ZN12GEOPMPackage19Aggregation_IsValidEi@Base 2.0.0-1
 _ZN12GEOPMPackage20StringFormat_IsValidEi@Base 2.0.0-1
 _ZN12GEOPMPackage22Aggregation_descriptorEv@Base 2.0.0-1
 _ZN12GEOPMPackage22SignalBehavior_IsValidEi@Base 2.0.0-1
 _ZN12GEOPMPackage23StringFormat_descriptorEv@Base 2.0.0-1
 _ZN12GEOPMPackage24_Empty_default_instance_E@Base 2.0.0-1
 _ZN12GEOPMPackage25SignalBehavior_descriptorEv@Base 2.0.0-1
 _ZN12GEOPMPackage25SignalInfoList_SignalInfo12InternalSwapEPS0_@Base 2.0.0-1
 _ZN12GEOPMPackage25SignalInfoList_SignalInfo14_InternalParseEPKcPN6google8protobuf8internal12ParseContextE@Base 2.0.0-1
 _ZN12GEOPMPackage25SignalInfoList_SignalInfo16default_instanceEv@Base 2.0.0-1
 _ZN12GEOPMPackage25SignalInfoList_SignalInfo21InitAsDefaultInstanceEv@Base 2.0.0-1
 _ZN12GEOPMPackage25SignalInfoList_SignalInfo5ClearEv@Base 2.0.0-1
 _ZN12GEOPMPackage25SignalInfoList_SignalInfo8CopyFromERKN6google8protobuf7MessageE@Base 2.0.0-1
 _ZN12GEOPMPackage25SignalInfoList_SignalInfo8CopyFromERKS0_@Base 2.0.0-1
 _ZN12GEOPMPackage25SignalInfoList_SignalInfo9ArenaDtorEPv@Base 2.0.0-1
 _ZN12GEOPMPackage25SignalInfoList_SignalInfo9MergeFromERKN6google8protobuf7MessageE@Base 2.0.0-1
 _ZN12GEOPMPackage25SignalInfoList_SignalInfo9MergeFromERKS0_@Base 2.0.0-1
 _ZN12GEOPMPackage25SignalInfoList_SignalInfoC1EPN6google8protobuf5ArenaE@Base 2.0.0-1
 _ZN12GEOPMPackage25SignalInfoList_SignalInfoC1ERKS0_@Base 2.0.0-1
 _ZN12GEOPMPackage25SignalInfoList_SignalInfoC2EPN6google8protobuf5ArenaE@Base 2.0.0-1
 _ZN12GEOPMPackage25SignalInfoList_SignalInfoC2ERKS0_@Base 2.0.0-1
 _ZN12GEOPMPackage25SignalInfoList_SignalInfoD0Ev@Base 2.0.0-1
 _ZN12GEOPMPackage25SignalInfoList_SignalInfoD1Ev@Base 2.0.0-1
 _ZN12GEOPMPackage25SignalInfoList_SignalInfoD2Ev@Base 2.0.0-1
 _ZN12GEOPMPackage25_Sample_default_instance_E@Base 2.0.0-1
 _ZN12GEOPMPackage26_PidList_default_instance_E@Base 2.0.0-1
 _ZN12GEOPMPackage27ControlInfoList_ControlInfo12InternalSwapEPS0_@Base 2.0.0-1
 _ZN12GEOPMPackage27ControlInfoList_ControlInfo14_InternalParseEPKcPN6google8protobuf8internal12ParseContextE@Base 2.0.0-1
 _ZN12GEOPMPackage27ControlInfoList_ControlInfo16default_instanceEv@Base 2.0.0-1
 _ZN12GEOPMPackage27ControlInfoList_ControlInfo21InitAsDefaultInstanceEv@Base 2.0.0-1
 _ZN12GEOPMPackage27ControlInfoList_ControlInfo5ClearEv@Base 2.0.0-1
 _ZN12GEOPMPackage27ControlInfoList_ControlInfo8CopyFromERKN6google8protobuf7MessageE@Base 2.0.0-1
 _ZN12GEOPMPackage27ControlInfoList_ControlInfo8CopyFromERKS0_@Base 2.0.0-1
 _ZN12GEOPMPackage27ControlInfoList_ControlInfo9ArenaDtorEPv@Base 2.0.0-1
 _ZN12GEOPMPackage27ControlInfoList_ControlInfo9MergeFromERKN6google8protobuf7MessageE@Base 2.0.0-1
 _ZN12GEOPMPackage27ControlInfoList_ControlInfo9MergeFromERKS0_@Base 2.0.0-1
 _ZN12GEOPMPackage27ControlInfoList_ControlInfoC1EPN6google8protobuf5ArenaE@Base 2.0.0-1
 _ZN12GEOPMPackage27ControlInfoList_ControlInfoC1ERKS0_@Base 2.0.0-1
 _ZN12GEOPMPackage27ControlInfoList_ControlInfoC2EPN6google8protobuf5ArenaE@Base 2.0.0-1
 _ZN12GEOPMPackage27ControlInfoList_ControlInfoC2ERKS0_@Base 2.0.0-1
 _ZN12GEOPMPackage27ControlInfoList_ControlInfoD0Ev@Base 2.0.0-1
 _ZN12GEOPMPackage27ControlInfoList_ControlInfoD1Ev@Base 2.0.0-1
 _ZN12GEOPMPackage27ControlInfoList_ControlInfoD2Ev@Base 2.0.0-1
 _ZN12GEOPMPackage27_BatchKey_default_instance_E@Base 2.0.0-1
 _ZN12GEOPMPackage27_NameList_default_instance_E@Base 2.0.0-1
 _ZN12GEOPMPackage28_TopoCache_default_instance_E@Base 2.0.0-1
 _ZN12GEOPMPackage29_SessionKey_default_instance_E@Base 2.0.0-1
 _ZN12GEOPMPackage30_AccessLists_default_instance_E@Base 2.0.0-1
 _ZN12GEOPMPackage30_InfoRequest_default_instance_E@Base 2.0.0-1
 _ZN12GEOPMPackage30_ReadRequest_default_instance_E@Base 2.0.0-1
 _ZN12GEOPMPackage31_BatchRequest_default_instance_E@Base 2.0.0-1
 _ZN12GEOPMPackage31_BatchSession_default_instance_E@Base 2.0.0-1
 _ZN12GEOPMPackage31_WriteRequest_default_instance_E@Base 2.0.0-1
 _ZN12GEOPMPackage33_ProfileRequest_default_instance_E@Base 2.0.0-1
 _ZN12GEOPMPackage33_SignalInfoList_default_instance_E@Base 2.0.0-1
 _ZN12GEOPMPackage34_ControlInfoList_default_instance_E@Base 2.0.0-1
 _ZN12GEOPMPackage34_PlatformRequest_default_instance_E@Base 2.0.0-1
 _ZN12GEOPMPackage44_SignalInfoList_SignalInfo_default_instance_E@Base 2.0.0-1
 _ZN12GEOPMPackage46_ControlInfoList_ControlInfo_default_instance_E@Base 2.0.0-1
 _ZN12GEOPMPackage5Empty12InternalSwapEPS0_@Base 2.0.0-1
 _ZN12GEOPMPackage5Empty14_InternalParseEPKcPN6google8protobuf8internal12ParseContextE@Base 2.0.0-1
 _ZN12GEOPMPackage5Empty16default_instanceEv@Base 2.0.0-1
 _ZN12GEOPMPackage5Empty21InitAsDefaultInstanceEv@Base 2.0.0-1
 _ZN12GEOPMPackage5Empty5ClearEv@Base 2.0.0-1
 _ZN12GEOPMPackage5Empty8CopyFromERKN6google8protobuf7MessageE@Base 2.0.0-1
 _ZN12GEOPMPackage5Empty8CopyFromERKS0_@Base 2.0.0-1
 _ZN12GEOPMPackage5Empty9ArenaDtorEPv@Base 2.0.0-1
 _ZN12GEOPMPackage5Empty9MergeFromERKN6google8protobuf7MessageE@Base 2.0.0-1
 _ZN12GEOPMPackage5Empty9MergeFromERKS0_@Base 2.0.0-1
 _ZN12GEOPMPackage5EmptyC1EPN6google8protobuf5ArenaE@Base 2.0.0-1
 _ZN12GEOPMPackage5EmptyC1ERKS0_@Base 2.0.0-1
 _ZN12GEOPMPackage5EmptyC2EPN6google8protobuf5ArenaE@Base 2.0.0-1
 _ZN12GEOPMPackage5EmptyC2ERKS0_@Base 2.0.0-1
 _ZN12GEOPMPackage5EmptyD0Ev@Base 2.0.0-1
 _ZN12GEOPMPackage5EmptyD1Ev@Base 2.0.0-1
 _ZN12GEOPMPackage5EmptyD2Ev@Base 2.0.0-1
 _ZN12GEOPMPackage6Sample12InternalSwapEPS0_@Base 2.0.0-1
 _ZN12GEOPMPackage6Sample14_InternalParseEPKcPN6google8protobuf8internal12ParseContextE@Base 2.0.0-1
 _ZN12GEOPMPackage6Sample16default_instanceEv@Base 2.0.0-1
 _ZN12GEOPMPackage6Sample21InitAsDefaultInstanceEv@Base 2.0.0-1
 _ZN12GEOPMPackage6Sample5ClearEv@Base 2.0.0-1
 _ZN12GEOPMPackage6Sample8CopyFromERKN6google8protobuf7MessageE@Base 2.0.0-1
 _ZN12GEOPMPackage6Sample8CopyFromERKS0_@Base 2.0.0-1
 _ZN12GEOPMPackage6Sample9ArenaDtorEPv@Base 2.0.0-1
 _ZN12GEOPMPackage6Sample9MergeFromERKN6google8protobuf7MessageE@Base 2.0.0-1
 _ZN12GEOPMPackage6Sample9MergeFromERKS0_@Base 2.0.0-1
 _ZN12GEOPMPackage6SampleC1EPN6google8protobuf5ArenaE@Base 2.0.0-1
 _ZN12GEOPMPackage6SampleC1ERKS0_@Base 2.0.0-1
 _ZN12GEOPMPackage6SampleC2EPN6google8protobuf5ArenaE@Base 2.0.0-1
 _ZN12GEOPMPackage6SampleC2ERKS0_@Base 2.0.0-1
 _ZN12GEOPMPackage6SampleD0Ev@Base 2.0.0-1
 _ZN12GEOPMPackage6SampleD1Ev@Base 2.0.0-1
 _ZN12GEOPMPackage6SampleD2Ev@Base 2.0.0-1
 _ZN12GEOPMPackage7PidList12InternalSwapEPS0_@Base 2.0.0-1
 _ZN12GEOPMPackage7PidList14_InternalParseEPKcPN6google8protobuf8internal12ParseContextE@Base 2.0.0-1
 _ZN12GEOPMPackage7PidList16default_instanceEv@Base 2.0.0-1
 _ZN12GEOPMPackage7PidList21InitAsDefaultInstanceEv@Base 2.0.0-1
 _ZN12GEOPMPackage7PidList5ClearEv@Base 2.0.0-1
 _ZN12GEOPMPackage7PidList8CopyFromERKN6google8protobuf7MessageE@Base 2.0.0-1
 _ZN12GEOPMPackage7PidList8CopyFromERKS0_@Base 2.0.0-1
 _ZN12GEOPMPackage7PidList9ArenaDtorEPv@Base 2.0.0-1
 _ZN12GEOPMPackage7PidList9MergeFromERKN6google8protobuf7MessageE@Base 2.0.0-1
 _ZN12GEOPMPackage7PidList9MergeFromERKS0_@Base 2.0.0-1
 _ZN12GEOPMPackage7PidListC1EPN6google8protobuf5ArenaE@Base 2.0.0-1
 _ZN12GEOPMPackage7PidListC1ERKS0_@Base 2.0.0-1
 _ZN12GEOPMPackage7PidListC2EPN6google8protobuf5ArenaE@Base 2.0.0-1
 _ZN12GEOPMPackage7PidListC2ERKS0_@Base 2.0.0-1
 _ZN12GEOPMPackage7PidListD0Ev@Base 2.0.0-1
 _ZN12GEOPMPackage7PidListD1Ev@Base 2.0.0-1
 _ZN12GEOPMPackage7PidListD2Ev@Base 2.0.0-1
 _ZN12GEOPMPackage8BatchKey12InternalSwapEPS0_@Base 2.0.0-1
 _ZN12GEOPMPackage8BatchKey14_InternalParseEPKcPN6google8protobuf8internal12ParseContextE@Base 2.0.0-1
 _ZN12GEOPMPackage8BatchKey16default_instanceEv@Base 2.0.0-1
 _ZN12GEOPMPackage8BatchKey21InitAsDefaultInstanceEv@Base 2.0.0-1
 _ZN12GEOPMPackage8BatchKey5ClearEv@Base 2.0.0-1
 _ZN12GEOPMPackage8BatchKey8CopyFromERKN6google8protobuf7MessageE@Base 2.0.0-1
 _ZN12GEOPMPackage8BatchKey8CopyFromERKS0_@Base 2.0.0-1
 _ZN12GEOPMPackage8BatchKey9ArenaDtorEPv@Base 2.0.0-1
 _ZN12GEOPMPackage8BatchKey9MergeFromERKN6google8protobuf7MessageE@Base 2.0.0-1
 _ZN12GEOPMPackage8BatchKey9MergeFromERKS0_@Base 2.0.0-1
 _ZN12GEOPMPackage8BatchKeyC1EPN6google8protobuf5ArenaE@Base 2.0.0-1
 _ZN12GEOPMPackage8BatchKeyC1ERKS0_@Base 2.0.0-1
 _ZN12GEOPMPackage8BatchKeyC2EPN6google8protobuf5ArenaE@Base 2.0.0-1
 _ZN12GEOPMPackage8BatchKeyC2ERKS0_@Base 2.0.0-1
 _ZN12GEOPMPackage8BatchKeyD0Ev@Base 2.0.0-1
 _ZN12GEOPMPackage8BatchKeyD1Ev@Base 2.0.0-1
 _ZN12GEOPMPackage8BatchKeyD2Ev@Base 2.0.0-1
 _ZN12GEOPMPackage8NameList12InternalSwapEPS0_@Base 2.0.0-1
 _ZN12GEOPMPackage8NameList14_InternalParseEPKcPN6google8protobuf8internal12ParseContextE@Base 2.0.0-1
 _ZN12GEOPMPackage8NameList16default_instanceEv@Base 2.0.0-1
 _ZN12GEOPMPackage8NameList21InitAsDefaultInstanceEv@Base 2.0.0-1
 _ZN12GEOPMPackage8NameList5ClearEv@Base 2.0.0-1
 _ZN12GEOPMPackage8NameList8CopyFromERKN6google8protobuf7MessageE@Base 2.0.0-1
 _ZN12GEOPMPackage8NameList8CopyFromERKS0_@Base 2.0.0-1
 _ZN12GEOPMPackage8NameList9ArenaDtorEPv@Base 2.0.0-1
 _ZN12GEOPMPackage8NameList9MergeFromERKN6google8protobuf7MessageE@Base 2.0.0-1
 _ZN12GEOPMPackage8NameList9MergeFromERKS0_@Base 2.0.0-1
 _ZN12GEOPMPackage8NameListC1EPN6google8protobuf5ArenaE@Base 2.0.0-1
 _ZN12GEOPMPackage8NameListC1ERKS0_@Base 2.0.0-1
 _ZN12GEOPMPackage8NameListC2EPN6google8protobuf5ArenaE@Base 2.0.0-1
 _ZN12GEOPMPackage8NameListC2ERKS0_@Base 2.0.0-1
 _ZN12GEOPMPackage8NameListD0Ev@Base 2.0.0-1
 _ZN12GEOPMPackage8NameListD1Ev@Base 2.0.0-1
 _ZN12GEOPMPackage8NameListD2Ev@Base 2.0.0-1
 _ZN12GEOPMPackage9TopoCache12InternalSwapEPS0_@Base 2.0.0-1
 _ZN12GEOPMPackage9TopoCache14_InternalParseEPKcPN6google8protobuf8internal12ParseContextE@Base 2.0.0-1
 _ZN12GEOPMPackage9TopoCache16default_instanceEv@Base 2.0.0-1
 _ZN12GEOPMPackage9TopoCache21InitAsDefaultInstanceEv@Base 2.0.0-1
 _ZN12GEOPMPackage9TopoCache5ClearEv@Base 2.0.0-1
 _ZN12GEOPMPackage9TopoCache8CopyFromERKN6google8protobuf7MessageE@Base 2.0.0-1
 _ZN12GEOPMPackage9TopoCache8CopyFromERKS0_@Base 2.0.0-1
 _ZN12GEOPMPackage9TopoCache9ArenaDtorEPv@Base 2.0.0-1
 _ZN12GEOPMPackage9TopoCache9MergeFromERKN6google8protobuf7MessageE@Base 2.0.0-1
 _ZN12GEOPMPackage9TopoCache9MergeFromERKS0_@Base 2.0.0-1
 _ZN12GEOPMPackage9TopoCacheC1EPN6google8protobuf5ArenaE@Base 2.0.0-1
 _ZN12GEOPMPackage9TopoCacheC1ERKS0_@Base 2.0.0-1
 _ZN12GEOPMPackage9TopoCacheC2EPN6google8protobuf5ArenaE@Base 2.0.0-1
 _ZN12GEOPMPackage9TopoCacheC2ERKS0_@Base 2.0.0-1
 _ZN12GEOPMPackage9TopoCacheD0Ev@Base 2.0.0-1
 _ZN12GEOPMPackage9TopoCacheD1Ev@Base 2.0.0-1
 _ZN12GEOPMPackage9TopoCacheD2Ev@Base 2.0.0-1
 _ZN35TableStruct_geopm_5fservice_2eproto7offsetsE@Base 2.0.0-1
 _ZN4grpc8internal21CallbackWithStatusTag9StaticRunEP42grpc_experimental_completion_queue_functori@Base 2.0.0-1
 _ZN4grpc8internal22CallbackWithSuccessTag9StaticRunEP42grpc_experimental_completion_queue_functori@Base 2.0.0-1
 _ZN5geopm10CNLIOGroup10read_batchEv@Base 2.0.0-1
 _ZN5geopm10CNLIOGroup11make_pluginEv@Base 2.0.0-1
 _ZN5geopm10CNLIOGroup11plugin_nameB5cxx11Ev@Base 2.0.0-1
 _ZN5geopm10CNLIOGroup11push_signalERKNSt7__cxx1112basic_stringIcSt11char_traitsIcESaIcEEEii@Base 2.0.0-1
 _ZN5geopm10CNLIOGroup11read_signalERKNSt7__cxx1112basic_stringIcSt11char_traitsIcESaIcEEEii@Base 2.0.0-1
 _ZN5geopm10CNLIOGroup11write_batchEv@Base 2.0.0-1
 _ZN5geopm10CNLIOGroup12push_controlERKNSt7__cxx1112basic_stringIcSt11char_traitsIcESaIcEEEii@Base 2.0.0-1
 _ZN5geopm10CNLIOGroup12save_controlERKNSt7__cxx1112basic_stringIcSt11char_traitsIcESaIcEEE@Base 2.0.0-1
 _ZN5geopm10CNLIOGroup12save_controlEv@Base 2.0.0-1
 _ZN5geopm10CNLIOGroup13write_controlERKNSt7__cxx1112basic_stringIcSt11char_traitsIcESaIcEEEiid@Base 2.0.0-1
 _ZN5geopm10CNLIOGroup15restore_controlERKNSt7__cxx1112basic_stringIcSt11char_traitsIcESaIcEEE@Base 2.0.0-1
 _ZN5geopm10CNLIOGroup15restore_controlEv@Base 2.0.0-1
 _ZN5geopm10CNLIOGroup21register_signal_aliasERKNSt7__cxx1112basic_stringIcSt11char_traitsIcESaIcEEES8_@Base 2.0.0-1
 _ZN5geopm10CNLIOGroup6adjustEid@Base 2.0.0-1
 _ZN5geopm10CNLIOGroup6sampleEi@Base 2.0.0-1
 _ZN5geopm10CNLIOGroupC1ERKNSt7__cxx1112basic_stringIcSt11char_traitsIcESaIcEEE@Base 2.0.0-1
 _ZN5geopm10CNLIOGroupC1Ev@Base 2.0.0-1
 _ZN5geopm10CNLIOGroupC2ERKNSt7__cxx1112basic_stringIcSt11char_traitsIcESaIcEEE@Base 2.0.0-1
 _ZN5geopm10CNLIOGroupC2Ev@Base 2.0.0-1
 _ZN5geopm10IOUringImp10prep_writeESt10shared_ptrIiEiPKvjl@Base 2.0.0-1
 _ZN5geopm10IOUringImp11make_uniqueEj@Base 2.0.0-1
 _ZN5geopm10IOUringImp12is_supportedEv@Base 2.0.0-1
 _ZN5geopm10IOUringImp16get_sqe_or_throwEv@Base 2.0.0-1
 _ZN5geopm10IOUringImp26set_sqe_return_destinationEP12io_uring_sqeSt10shared_ptrIiE@Base 2.0.0-1
 _ZN5geopm10IOUringImp6submitEv@Base 2.0.0-1
 _ZN5geopm10IOUringImp9prep_readESt10shared_ptrIiEiPvjl@Base 2.0.0-1
 _ZN5geopm10IOUringImpC1Ej@Base 2.0.0-1
 _ZN5geopm10IOUringImpC2Ej@Base 2.0.0-1
 _ZN5geopm10IOUringImpD0Ev@Base 2.0.0-1
 _ZN5geopm10IOUringImpD1Ev@Base 2.0.0-1
 _ZN5geopm10IOUringImpD2Ev@Base 2.0.0-1
 _ZN5geopm10MSRIOGroup10read_batchEv@Base 2.0.0-1
 _ZN5geopm10MSRIOGroup11make_pluginEv@Base 2.0.0-1
 _ZN5geopm10MSRIOGroup11plugin_nameB5cxx11Ev@Base 2.0.0-1
 _ZN5geopm10MSRIOGroup11push_signalERKNSt7__cxx1112basic_stringIcSt11char_traitsIcESaIcEEEii@Base 2.0.0-1
 _ZN5geopm10MSRIOGroup11read_signalERKNSt7__cxx1112basic_stringIcSt11char_traitsIcESaIcEEEii@Base 2.0.0-1
 _ZN5geopm10MSRIOGroup11write_batchEv@Base 2.0.0-1
 _ZN5geopm10MSRIOGroup12get_rdt_infoEv@Base 2.0.0-1
 _ZN5geopm10MSRIOGroup12push_controlERKNSt7__cxx1112basic_stringIcSt11char_traitsIcESaIcEEEii@Base 2.0.0-1
 _ZN5geopm10MSRIOGroup12save_controlERKNSt7__cxx1112basic_stringIcSt11char_traitsIcESaIcEEE@Base 2.0.0-1
 _ZN5geopm10MSRIOGroup12save_controlEv@Base 2.0.0-1
 _ZN5geopm10MSRIOGroup13M_NAME_PREFIXB5cxx11E@Base 2.0.0-1
 _ZN5geopm10MSRIOGroup13M_PLUGIN_NAMEB5cxx11E@Base 2.0.0-1
 _ZN5geopm10MSRIOGroup13check_controlERKNSt7__cxx1112basic_stringIcSt11char_traitsIcESaIcEEE@Base 2.0.0-1
 _ZN5geopm10MSRIOGroup13msr_allowlistB5cxx11Ei@Base 2.0.0-1
 _ZN5geopm10MSRIOGroup13platform_dataB5cxx11Ei@Base 2.0.0-1
 _ZN5geopm10MSRIOGroup13write_controlERKNSt7__cxx1112basic_stringIcSt11char_traitsIcESaIcEEEiid@Base 2.0.0-1
 _ZN5geopm10MSRIOGroup14check_msr_rootERKN6json114JsonERKNSt7__cxx1112basic_stringIcSt11char_traitsIcESaIcEEE@Base 2.0.0-1
 _ZN5geopm10MSRIOGroup14msr_data_filesB5cxx11Ev@Base 2.0.0-1
 _ZN5geopm10MSRIOGroup15check_msr_fieldERKN6json114JsonERKNSt7__cxx1112basic_stringIcSt11char_traitsIcESaIcEEESC_@Base 2.0.0-1
 _ZN5geopm10MSRIOGroup15check_top_levelERKN6json114JsonE@Base 2.0.0-1
 _ZN5geopm10MSRIOGroup15get_hwp_enabledEv@Base 2.0.0-1
 _ZN5geopm10MSRIOGroup15parse_json_msrsERKNSt7__cxx1112basic_stringIcSt11char_traitsIcESaIcEEE@Base 2.0.0-1
 _ZN5geopm10MSRIOGroup15restore_controlERKNSt7__cxx1112basic_stringIcSt11char_traitsIcESaIcEEE@Base 2.0.0-1
 _ZN5geopm10MSRIOGroup15restore_controlEv@Base 2.0.0-1
 _ZN5geopm10MSRIOGroup16format_allowlistERKSt3mapImSt4pairImNSt7__cxx1112basic_stringIcSt11char_traitsIcESaIcEEEESt4lessImESaIS2_IKmS9_EEE@Base 2.0.0-1
 _ZN5geopm10MSRIOGroup17get_pmc_bit_widthEv@Base 2.0.0-1
 _ZN5geopm10MSRIOGroup18add_raw_msr_signalERKNSt7__cxx1112basic_stringIcSt11char_traitsIcESaIcEEEim@Base 2.0.0-1
 _ZN5geopm10MSRIOGroup18check_control_lockERKNSt7__cxx1112basic_stringIcSt11char_traitsIcESaIcEEES8_@Base 2.0.0-1
 _ZN5geopm10MSRIOGroup20add_msr_field_signalERKNSt7__cxx1112basic_stringIcSt11char_traitsIcESaIcEEES8_iiiidiS8_S8_iRKSt8functionIFS6_dEE@Base 2.0.0-1
 _ZN5geopm10MSRIOGroup20json_check_null_funcERKN6json114JsonE@Base 2.0.0-1
 _ZN5geopm10MSRIOGroup20register_rdt_signalsEv@Base 2.0.0-1
 _ZN5geopm10MSRIOGroup21M_DEFAULT_DESCRIPTIONB5cxx11E@Base 2.0.0-1
 _ZN5geopm10MSRIOGroup21add_msr_field_controlERKNSt7__cxx1112basic_stringIcSt11char_traitsIcESaIcEEEimiiidiS8_@Base 2.0.0-1
 _ZN5geopm10MSRIOGroup21enable_fixed_countersEv@Base 2.0.0-1
 _ZN5geopm10MSRIOGroup21json_check_is_integerERKN6json114JsonE@Base 2.0.0-1
 _ZN5geopm10MSRIOGroup21register_signal_aliasERKNSt7__cxx1112basic_stringIcSt11char_traitsIcESaIcEEES8_@Base 2.0.0-1
 _ZN5geopm10MSRIOGroup22register_control_aliasERKNSt7__cxx1112basic_stringIcSt11char_traitsIcESaIcEEES8_@Base 2.0.0-1
 _ZN5geopm10MSRIOGroup22register_power_signalsEv@Base 2.0.0-1
 _ZN5geopm10MSRIOGroup22set_signal_descriptionERKNSt7__cxx1112basic_stringIcSt11char_traitsIcESaIcEEES8_@Base 2.0.0-1
 _ZN5geopm10MSRIOGroup23set_control_descriptionERKNSt7__cxx1112basic_stringIcSt11char_traitsIcESaIcEEES8_@Base 2.0.0-1
 _ZN5geopm10MSRIOGroup24json_check_is_hex_stringERKN6json114JsonE@Base 2.0.0-1
 _ZN5geopm10MSRIOGroup25parse_json_msrs_allowlistERKNSt7__cxx1112basic_stringIcSt11char_traitsIcESaIcEEERSt3mapImSt4pairImS6_ESt4lessImESaISA_IKmSB_EEE@Base 2.0.0-1
 _ZN5geopm10MSRIOGroup26json_check_is_valid_domainERKN6json114JsonE@Base 2.0.0-1
 _ZN5geopm10MSRIOGroup26json_check_is_valid_offsetERKN6json114JsonE@Base 2.0.0-1
 _ZN5geopm10MSRIOGroup26register_frequency_signalsEv@Base 2.0.0-1
 _ZN5geopm10MSRIOGroup27register_frequency_controlsEv@Base 2.0.0-1
 _ZN5geopm10MSRIOGroup28register_temperature_signalsEv@Base 2.0.0-1
 _ZN5geopm10MSRIOGroup31json_check_is_valid_aggregationERKN6json114JsonE@Base 2.0.0-1
 _ZN5geopm10MSRIOGroup33register_pcnt_scalability_signalsEv@Base 2.0.0-1
 _ZN5geopm10MSRIOGroup5cpuidEv@Base 2.0.0-1
 _ZN5geopm10MSRIOGroup6adjustEid@Base 2.0.0-1
 _ZN5geopm10MSRIOGroup6sampleEi@Base 2.0.0-1
 _ZN5geopm10MSRIOGroupC1ERKNS_12PlatformTopoESt10shared_ptrINS_5MSRIOEEiiS4_INS_11SaveControlEE@Base 2.0.0-1
 _ZN5geopm10MSRIOGroupC1Ev@Base 2.0.0-1
 _ZN5geopm10MSRIOGroupC2ERKNS_12PlatformTopoESt10shared_ptrINS_5MSRIOEEiiS4_INS_11SaveControlEE@Base 2.0.0-1
 _ZN5geopm10MSRIOGroupC2Ev@Base 2.0.0-1
 _ZN5geopm10PlatformIO14is_valid_valueEd@Base 2.0.0-1
 _ZN5geopm10SSTControl11setup_batchEv@Base 2.0.0-1
 _ZN5geopm10SSTControl20set_write_dependencyEmSt8weak_ptrINS_7ControlEEm@Base 2.0.0-1
 _ZN5geopm10SSTControl4saveEv@Base 2.0.0-1
 _ZN5geopm10SSTControl5writeEd@Base 2.0.0-1
 _ZN5geopm10SSTControl6adjustEd@Base 2.0.0-1
 _ZN5geopm10SSTControl7restoreEv@Base 2.0.0-1
 _ZN5geopm10SSTControlC1ESt10shared_ptrINS_5SSTIOEENS0_11ControlTypeEijjjjjjdjjj@Base 2.0.0-1
 _ZN5geopm10SSTControlC2ESt10shared_ptrINS_5SSTIOEENS0_11ControlTypeEijjjjjjdjjj@Base 2.0.0-1
 _ZN5geopm10SSTIOGroup10read_batchEv@Base 2.0.0-1
 _ZN5geopm10SSTIOGroup11make_pluginEv@Base 2.0.0-1
 _ZN5geopm10SSTIOGroup11plugin_nameB5cxx11Ev@Base 2.0.0-1
 _ZN5geopm10SSTIOGroup11push_signalERKNSt7__cxx1112basic_stringIcSt11char_traitsIcESaIcEEEii@Base 2.0.0-1
 _ZN5geopm10SSTIOGroup11read_signalERKNSt7__cxx1112basic_stringIcSt11char_traitsIcESaIcEEEii@Base 2.0.0-1
 _ZN5geopm10SSTIOGroup11write_batchEv@Base 2.0.0-1
 _ZN5geopm10SSTIOGroup12push_controlERKNSt7__cxx1112basic_stringIcSt11char_traitsIcESaIcEEEii@Base 2.0.0-1
 _ZN5geopm10SSTIOGroup12save_controlERKNSt7__cxx1112basic_stringIcSt11char_traitsIcESaIcEEE@Base 2.0.0-1
 _ZN5geopm10SSTIOGroup12save_controlEv@Base 2.0.0-1
 _ZN5geopm10SSTIOGroup13write_controlERKNSt7__cxx1112basic_stringIcSt11char_traitsIcESaIcEEEiid@Base 2.0.0-1
 _ZN5geopm10SSTIOGroup15restore_controlERKNSt7__cxx1112basic_stringIcSt11char_traitsIcESaIcEEE@Base 2.0.0-1
 _ZN5geopm10SSTIOGroup15restore_controlEv@Base 2.0.0-1
 _ZN5geopm10SSTIOGroup16add_mbox_signalsERKNSt7__cxx1112basic_stringIcSt11char_traitsIcESaIcEEENS0_17SSTMailboxCommandEtRKSt3mapIS6_NS0_26sst_signal_mailbox_field_sESt4lessIS6_ESaISt4pairIS7_SB_EEE@Base 2.0.0-1
 _ZN5geopm10SSTIOGroup16add_mmio_signalsERKNSt7__cxx1112basic_stringIcSt11char_traitsIcESaIcEEEijRKSt3mapIS6_NS0_23sst_signal_mmio_field_sESt4lessIS6_ESaISt4pairIS7_SA_EEE@Base 2.0.0-1
 _ZN5geopm10SSTIOGroup17add_mbox_controlsERKNSt7__cxx1112basic_stringIcSt11char_traitsIcESaIcEEENS0_17SSTMailboxCommandEtjRKSt3mapIS6_NS0_27sst_control_mailbox_field_sESt4lessIS6_ESaISt4pairIS7_SB_EEEtjj@Base 2.0.0-1
 _ZN5geopm10SSTIOGroup17add_mmio_controlsERKNSt7__cxx1112basic_stringIcSt11char_traitsIcESaIcEEEijRKSt3mapIS6_NS0_24sst_control_mmio_field_sESt4lessIS6_ESaISt4pairIS7_SA_EEEj@Base 2.0.0-1
 _ZN5geopm10SSTIOGroup20sst_signal_mbox_infoB5cxx11E@Base 2.0.0-1
 _ZN5geopm10SSTIOGroup21sst_control_mbox_infoB5cxx11E@Base 2.0.0-1
 _ZN5geopm10SSTIOGroup21sst_control_mmio_infoB5cxx11E@Base 2.0.0-1
 _ZN5geopm10SSTIOGroup6adjustEid@Base 2.0.0-1
 _ZN5geopm10SSTIOGroup6sampleEi@Base 2.0.0-1
 _ZN5geopm10SSTIOGroupC1ERKNS_12PlatformTopoESt10shared_ptrINS_5SSTIOEES4_INS_11SaveControlEE@Base 2.0.0-1
 _ZN5geopm10SSTIOGroupC1Ev@Base 2.0.0-1
 _ZN5geopm10SSTIOGroupC2ERKNS_12PlatformTopoESt10shared_ptrINS_5SSTIOEES4_INS_11SaveControlEE@Base 2.0.0-1
 _ZN5geopm10SSTIOGroupC2Ev@Base 2.0.0-1
 _ZN5geopm10TimeSignal11setup_batchEv@Base 2.0.0-1
 _ZN5geopm10TimeSignal6sampleEv@Base 2.0.0-1
 _ZN5geopm10TimeSignalC1ESt10shared_ptrI12geopm_time_sES1_IdE@Base 2.0.0-1
 _ZN5geopm10TimeSignalC2ESt10shared_ptrI12geopm_time_sES1_IdE@Base 2.0.0-1
 _ZN5geopm10check_hintEm@Base 2.0.0-1
 _ZN5geopm10nan_filterERKSt6vectorIdSaIdEE@Base 2.0.0-1
 _ZN5geopm10pid_to_gidEi@Base 2.0.0-1
 _ZN5geopm10pid_to_uidEi@Base 2.0.0-1
 _ZN5geopm10write_fileERKNSt7__cxx1112basic_stringIcSt11char_traitsIcESaIcEEES7_@Base 2.0.0-1
 _ZN5geopm11BatchClient11make_uniqueERKNSt7__cxx1112basic_stringIcSt11char_traitsIcESaIcEEEdii@Base 2.0.0-1
 _ZN5geopm11BatchServer11make_uniqueEiRKSt6vectorI15geopm_request_sSaIS2_EES6_@Base 2.0.0-1
 _ZN5geopm11BatchServer20get_signal_shmem_keyERKNSt7__cxx1112basic_stringIcSt11char_traitsIcESaIcEEE@Base 2.0.0-1
 _ZN5geopm11BatchServer21get_control_shmem_keyERKNSt7__cxx1112basic_stringIcSt11char_traitsIcESaIcEEE@Base 2.0.0-1
 _ZN5geopm11BatchStatus18make_unique_clientERKNSt7__cxx1112basic_stringIcSt11char_traitsIcESaIcEEE@Base 2.0.0-1
 _ZN5geopm11BatchStatus18make_unique_serverEiRKNSt7__cxx1112basic_stringIcSt11char_traitsIcESaIcEEE@Base 2.0.0-1
 _ZN5geopm11DCGMIOGroup10read_batchEv@Base 2.0.0-1
 _ZN5geopm11DCGMIOGroup11make_pluginEv@Base 2.0.0-1
 _ZN5geopm11DCGMIOGroup11plugin_nameB5cxx11Ev@Base 2.0.0-1
 _ZN5geopm11DCGMIOGroup11push_signalERKNSt7__cxx1112basic_stringIcSt11char_traitsIcESaIcEEEii@Base 2.0.0-1
 _ZN5geopm11DCGMIOGroup11read_signalERKNSt7__cxx1112basic_stringIcSt11char_traitsIcESaIcEEEii@Base 2.0.0-1
 _ZN5geopm11DCGMIOGroup11write_batchEv@Base 2.0.0-1
 _ZN5geopm11DCGMIOGroup12push_controlERKNSt7__cxx1112basic_stringIcSt11char_traitsIcESaIcEEEii@Base 2.0.0-1
 _ZN5geopm11DCGMIOGroup12save_controlERKNSt7__cxx1112basic_stringIcSt11char_traitsIcESaIcEEE@Base 2.0.0-1
 _ZN5geopm11DCGMIOGroup12save_controlEv@Base 2.0.0-1
 _ZN5geopm11DCGMIOGroup13write_controlERKNSt7__cxx1112basic_stringIcSt11char_traitsIcESaIcEEEiid@Base 2.0.0-1
 _ZN5geopm11DCGMIOGroup15restore_controlERKNSt7__cxx1112basic_stringIcSt11char_traitsIcESaIcEEE@Base 2.0.0-1
 _ZN5geopm11DCGMIOGroup15restore_controlEv@Base 2.0.0-1
 _ZN5geopm11DCGMIOGroup21register_signal_aliasERKNSt7__cxx1112basic_stringIcSt11char_traitsIcESaIcEEES8_@Base 2.0.0-1
 _ZN5geopm11DCGMIOGroup22register_control_aliasERKNSt7__cxx1112basic_stringIcSt11char_traitsIcESaIcEEES8_@Base 2.0.0-1
 _ZN5geopm11DCGMIOGroup6adjustEid@Base 2.0.0-1
 _ZN5geopm11DCGMIOGroup6sampleEi@Base 2.0.0-1
 _ZN5geopm11DCGMIOGroupC1ERKNS_12PlatformTopoERNS_14DCGMDevicePoolE@Base 2.0.0-1
 _ZN5geopm11DCGMIOGroupC1Ev@Base 2.0.0-1
 _ZN5geopm11DCGMIOGroupC2ERKNS_12PlatformTopoERNS_14DCGMDevicePoolE@Base 2.0.0-1
 _ZN5geopm11DCGMIOGroupC2Ev@Base 2.0.0-1
 _ZN5geopm11DCGMIOGroupD0Ev@Base 2.0.0-1
 _ZN5geopm11DCGMIOGroupD1Ev@Base 2.0.0-1
 _ZN5geopm11DCGMIOGroupD2Ev@Base 2.0.0-1
 _ZN5geopm11NVMLGPUTopoC1ERKNS_14NVMLDevicePoolEi@Base 2.0.0-1
 _ZN5geopm11NVMLGPUTopoC1Ev@Base 2.0.0-1
 _ZN5geopm11NVMLGPUTopoC2ERKNS_14NVMLDevicePoolEi@Base 2.0.0-1
 _ZN5geopm11NVMLGPUTopoC2Ev@Base 2.0.0-1
 _ZN5geopm11NVMLIOGroup10read_batchEv@Base 2.0.0-1
 _ZN5geopm11NVMLIOGroup11make_pluginEv@Base 2.0.0-1
 _ZN5geopm11NVMLIOGroup11plugin_nameB5cxx11Ev@Base 2.0.0-1
 _ZN5geopm11NVMLIOGroup11push_signalERKNSt7__cxx1112basic_stringIcSt11char_traitsIcESaIcEEEii@Base 2.0.0-1
 _ZN5geopm11NVMLIOGroup11read_signalERKNSt7__cxx1112basic_stringIcSt11char_traitsIcESaIcEEEii@Base 2.0.0-1
 _ZN5geopm11NVMLIOGroup11write_batchEv@Base 2.0.0-1
 _ZN5geopm11NVMLIOGroup12push_controlERKNSt7__cxx1112basic_stringIcSt11char_traitsIcESaIcEEEii@Base 2.0.0-1
 _ZN5geopm11NVMLIOGroup12save_controlERKNSt7__cxx1112basic_stringIcSt11char_traitsIcESaIcEEE@Base 2.0.0-1
 _ZN5geopm11NVMLIOGroup12save_controlEv@Base 2.0.0-1
 _ZN5geopm11NVMLIOGroup13M_NAME_PREFIXB5cxx11E@Base 2.0.0-1
 _ZN5geopm11NVMLIOGroup13M_PLUGIN_NAMEB5cxx11E@Base 2.0.0-1
 _ZN5geopm11NVMLIOGroup13write_controlERKNSt7__cxx1112basic_stringIcSt11char_traitsIcESaIcEEEiid@Base 2.0.0-1
 _ZN5geopm11NVMLIOGroup15restore_controlERKNSt7__cxx1112basic_stringIcSt11char_traitsIcESaIcEEE@Base 2.0.0-1
 _ZN5geopm11NVMLIOGroup15restore_controlEv@Base 2.0.0-1
 _ZN5geopm11NVMLIOGroup21register_signal_aliasERKNSt7__cxx1112basic_stringIcSt11char_traitsIcESaIcEEES8_@Base 2.0.0-1
 _ZN5geopm11NVMLIOGroup22register_control_aliasERKNSt7__cxx1112basic_stringIcSt11char_traitsIcESaIcEEES8_@Base 2.0.0-1
 _ZN5geopm11NVMLIOGroup6adjustEid@Base 2.0.0-1
 _ZN5geopm11NVMLIOGroup6sampleEi@Base 2.0.0-1
 _ZN5geopm11NVMLIOGroupC1ERKNS_12PlatformTopoERKNS_14NVMLDevicePoolESt10shared_ptrINS_11SaveControlEE@Base 2.0.0-1
 _ZN5geopm11NVMLIOGroupC1Ev@Base 2.0.0-1
 _ZN5geopm11NVMLIOGroupC2ERKNS_12PlatformTopoERKNS_14NVMLDevicePoolESt10shared_ptrINS_11SaveControlEE@Base 2.0.0-1
 _ZN5geopm11NVMLIOGroupC2Ev@Base 2.0.0-1
 _ZN5geopm11POSIXSignal11make_uniqueEv@Base 2.0.0-1
 _ZN5geopm11RatioSignal11setup_batchEv@Base 2.0.0-1
 _ZN5geopm11RatioSignal6sampleEv@Base 2.0.0-1
 _ZN5geopm11RatioSignalC1ESt10shared_ptrINS_6SignalEES3_@Base 2.0.0-1
 _ZN5geopm11RatioSignalC2ESt10shared_ptrINS_6SignalEES3_@Base 2.0.0-1
 _ZN5geopm11SSTIoctlImp10get_cpu_idEPNS_29sst_cpu_map_interface_batch_sE@Base 2.0.0-1
 _ZN5geopm11SSTIoctlImp4mboxEPNS_26sst_mbox_interface_batch_sE@Base 2.0.0-1
 _ZN5geopm11SSTIoctlImp4mmioEPNS_26sst_mmio_interface_batch_sE@Base 2.0.0-1
 _ZN5geopm11SSTIoctlImp7versionEPNS_13sst_version_sE@Base 2.0.0-1
 _ZN5geopm11SSTIoctlImpC1ERKNSt7__cxx1112basic_stringIcSt11char_traitsIcESaIcEEE@Base 2.0.0-1
 _ZN5geopm11SSTIoctlImpC2ERKNSt7__cxx1112basic_stringIcSt11char_traitsIcESaIcEEE@Base 2.0.0-1
 _ZN5geopm11SSTIoctlImpD0Ev@Base 2.0.0-1
 _ZN5geopm11SSTIoctlImpD1Ev@Base 2.0.0-1
 _ZN5geopm11SSTIoctlImpD2Ev@Base 2.0.0-1
 _ZN5geopm11SaveControl11make_uniqueERKNSt7__cxx1112basic_stringIcSt11char_traitsIcESaIcEEE@Base 2.0.0-1
 _ZN5geopm11SaveControl11make_uniqueERKSt6vectorINS0_11m_setting_sESaIS2_EE@Base 2.0.0-1
 _ZN5geopm11SaveControl11make_uniqueERNS_7IOGroupE@Base 2.0.0-1
 _ZN5geopm11TimeIOGroup10read_batchEv@Base 2.0.0-1
 _ZN5geopm11TimeIOGroup11make_pluginEv@Base 2.0.0-1
 _ZN5geopm11TimeIOGroup11plugin_nameB5cxx11Ev@Base 2.0.0-1
 _ZN5geopm11TimeIOGroup11push_signalERKNSt7__cxx1112basic_stringIcSt11char_traitsIcESaIcEEEii@Base 2.0.0-1
 _ZN5geopm11TimeIOGroup11read_signalERKNSt7__cxx1112basic_stringIcSt11char_traitsIcESaIcEEEii@Base 2.0.0-1
 _ZN5geopm11TimeIOGroup11write_batchEv@Base 2.0.0-1
 _ZN5geopm11TimeIOGroup12push_controlERKNSt7__cxx1112basic_stringIcSt11char_traitsIcESaIcEEEii@Base 2.0.0-1
 _ZN5geopm11TimeIOGroup12save_controlERKNSt7__cxx1112basic_stringIcSt11char_traitsIcESaIcEEE@Base 2.0.0-1
 _ZN5geopm11TimeIOGroup12save_controlEv@Base 2.0.0-1
 _ZN5geopm11TimeIOGroup13write_controlERKNSt7__cxx1112basic_stringIcSt11char_traitsIcESaIcEEEiid@Base 2.0.0-1
 _ZN5geopm11TimeIOGroup15restore_controlERKNSt7__cxx1112basic_stringIcSt11char_traitsIcESaIcEEE@Base 2.0.0-1
 _ZN5geopm11TimeIOGroup15restore_controlEv@Base 2.0.0-1
 _ZN5geopm11TimeIOGroup6adjustEid@Base 2.0.0-1
 _ZN5geopm11TimeIOGroup6sampleEi@Base 2.0.0-1
 _ZN5geopm11TimeIOGroupC1Ev@Base 2.0.0-1
 _ZN5geopm11TimeIOGroupC2Ev@Base 2.0.0-1
 _ZN5geopm11platform_ioEv@Base 2.0.0-1
 _ZN5geopm11plugin_loadERKNSt7__cxx1112basic_stringIcSt11char_traitsIcESaIcEEE@Base 2.0.0-1
 _ZN5geopm11string_joinERKSt6vectorINSt7__cxx1112basic_stringIcSt11char_traitsIcESaIcEEESaIS6_EERKS6_@Base 2.0.0-1
 _ZN5geopm12ErrorMessage12message_lastB5cxx11Ei@Base 2.0.0-1
 _ZN5geopm12ErrorMessage13message_fixedB5cxx11Ei@Base 2.0.0-1
 _ZN5geopm12ErrorMessage3getEv@Base 2.0.0-1
 _ZN5geopm12ErrorMessage6updateEiRKNSt7__cxx1112basic_stringIcSt11char_traitsIcESaIcEEE@Base 2.0.0-1
 _ZN5geopm12ErrorMessageC1Ev@Base 2.0.0-1
 _ZN5geopm12ErrorMessageC2Ev@Base 2.0.0-1
 _ZN5geopm12PlatformTopo12create_cacheEv@Base 2.0.0-1
 _ZN5geopm12PlatformTopo12domain_namesB5cxx11Ev@Base 2.0.0-1
 _ZN5geopm12PlatformTopo12domain_typesB5cxx11Ev@Base 2.0.0-1
 _ZN5geopm12PlatformTopo19domain_name_to_typeERKNSt7__cxx1112basic_stringIcSt11char_traitsIcESaIcEEE@Base 2.0.0-1
 _ZN5geopm12PlatformTopo19domain_type_to_nameB5cxx11Ei@Base 2.0.0-1
 _ZN5geopm12RawMSRSignal11setup_batchEv@Base 2.0.0-1
 _ZN5geopm12RawMSRSignal6sampleEv@Base 2.0.0-1
 _ZN5geopm12RawMSRSignalC1ESt10shared_ptrINS_5MSRIOEEim@Base 2.0.0-1
 _ZN5geopm12RawMSRSignalC2ESt10shared_ptrINS_5MSRIOEEim@Base 2.0.0-1
 _ZN5geopm12SDBusMessage11make_uniqueEP14sd_bus_message@Base 2.0.0-1
 _ZN5geopm12SDBusMessage20M_MESSAGE_TYPE_ARRAYE@Base 2.0.0-1
 _ZN5geopm12SDBusMessage21M_MESSAGE_TYPE_STRUCTE@Base 2.0.0-1
 _ZN5geopm12ServiceProxy11make_uniqueEv@Base 2.0.0-1
 _ZN5geopm12SharedMemory13cleanup_shmemEv@Base 2.0.0-1
 _ZN5geopm12SharedMemory16make_unique_userERKNSt7__cxx1112basic_stringIcSt11char_traitsIcESaIcEEEj@Base 2.0.0-1
 _ZN5geopm12SharedMemory17make_unique_ownerERKNSt7__cxx1112basic_stringIcSt11char_traitsIcESaIcEEEm@Base 2.0.0-1
 _ZN5geopm12SharedMemory24make_unique_owner_secureERKNSt7__cxx1112basic_stringIcSt11char_traitsIcESaIcEEEm@Base 2.0.0-1
 _ZN5geopm12hsx_msr_jsonB5cxx11Ev@Base 2.0.0-1
 _ZN5geopm12knl_msr_jsonB5cxx11Ev@Base 2.0.0-1
 _ZN5geopm12skx_msr_jsonB5cxx11Ev@Base 2.0.0-1
 _ZN5geopm12snb_msr_jsonB5cxx11Ev@Base 2.0.0-1
 _ZN5geopm12string_splitERKNSt7__cxx1112basic_stringIcSt11char_traitsIcESaIcEEES7_@Base 2.0.0-1
 _ZN5geopm13DomainControl11setup_batchEv@Base 2.0.0-1
 _ZN5geopm13DomainControl4saveEv@Base 2.0.0-1
 _ZN5geopm13DomainControl5writeEd@Base 2.0.0-1
 _ZN5geopm13DomainControl6adjustEd@Base 2.0.0-1
 _ZN5geopm13DomainControl7restoreEv@Base 2.0.0-1
 _ZN5geopm13DomainControlC1ERKSt6vectorISt10shared_ptrINS_7ControlEESaIS4_EE@Base 2.0.0-1
 _ZN5geopm13DomainControlC2ERKSt6vectorISt10shared_ptrINS_7ControlEESaIS4_EE@Base 2.0.0-1
 _ZN5geopm13PlatformIOImp10read_batchEv@Base 2.0.0-1
 _ZN5geopm13PlatformIOImp11push_signalERKNSt7__cxx1112basic_stringIcSt11char_traitsIcESaIcEEEii@Base 2.0.0-1
 _ZN5geopm13PlatformIOImp11read_signalERKNSt7__cxx1112basic_stringIcSt11char_traitsIcESaIcEEEii@Base 2.0.0-1
 _ZN5geopm13PlatformIOImp11write_batchEv@Base 2.0.0-1
 _ZN5geopm13PlatformIOImp12push_controlERKNSt7__cxx1112basic_stringIcSt11char_traitsIcESaIcEEEii@Base 2.0.0-1
 _ZN5geopm13PlatformIOImp12save_controlERKNSt7__cxx1112basic_stringIcSt11char_traitsIcESaIcEEE@Base 2.0.0-1
 _ZN5geopm13PlatformIOImp12save_controlEv@Base 2.0.0-1
 _ZN5geopm13PlatformIOImp13write_controlERKNSt7__cxx1112basic_stringIcSt11char_traitsIcESaIcEEEiid@Base 2.0.0-1
 _ZN5geopm13PlatformIOImp15adjust_combinedEid@Base 2.0.0-1
 _ZN5geopm13PlatformIOImp15restore_controlERKNSt7__cxx1112basic_stringIcSt11char_traitsIcESaIcEEE@Base 2.0.0-1
 _ZN5geopm13PlatformIOImp15restore_controlEv@Base 2.0.0-1
 _ZN5geopm13PlatformIOImp15sample_combinedEi@Base 2.0.0-1
 _ZN5geopm13PlatformIOImp16register_iogroupESt10shared_ptrINS_7IOGroupEE@Base 2.0.0-1
 _ZN5geopm13PlatformIOImp17stop_batch_serverEi@Base 2.0.0-1
 _ZN5geopm13PlatformIOImp18start_batch_serverEiRKSt6vectorI15geopm_request_sSaIS2_EES6_RiRNSt7__cxx1112basic_stringIcSt11char_traitsIcESaIcEEE@Base 2.0.0-1
 _ZN5geopm13PlatformIOImp20push_combined_signalERKNSt7__cxx1112basic_stringIcSt11char_traitsIcESaIcEEEiiRKSt6vectorIiSaIiEE@Base 2.0.0-1
 _ZN5geopm13PlatformIOImp21m_signal_descriptionsB5cxx11E@Base 2.0.0-1
 _ZN5geopm13PlatformIOImp21push_combined_controlERKNSt7__cxx1112basic_stringIcSt11char_traitsIcESaIcEEEiiRKSt6vectorIiSaIiEE@Base 2.0.0-1
 _ZN5geopm13PlatformIOImp22m_control_descriptionsB5cxx11E@Base 2.0.0-1
 _ZN5geopm13PlatformIOImp24register_combined_signalEiSt6vectorIiSaIiEESt10unique_ptrINS_14CombinedSignalESt14default_deleteIS5_EE@Base 2.0.0-1
 _ZN5geopm13PlatformIOImp25register_combined_controlEiSt6vectorIiSaIiEESt10unique_ptrINS_15CombinedControlESt14default_deleteIS5_EE@Base 2.0.0-1
 _ZN5geopm13PlatformIOImp26push_signal_convert_domainERKNSt7__cxx1112basic_stringIcSt11char_traitsIcESaIcEEEii@Base 2.0.0-1
 _ZN5geopm13PlatformIOImp26read_signal_convert_domainERKNSt7__cxx1112basic_stringIcSt11char_traitsIcESaIcEEEii@Base 2.0.0-1
 _ZN5geopm13PlatformIOImp27push_control_convert_domainERKNSt7__cxx1112basic_stringIcSt11char_traitsIcESaIcEEEii@Base 2.0.0-1
 _ZN5geopm13PlatformIOImp28write_control_convert_domainERKNSt7__cxx1112basic_stringIcSt11char_traitsIcESaIcEEEiid@Base 2.0.0-1
 _ZN5geopm13PlatformIOImp6adjustEid@Base 2.0.0-1
 _ZN5geopm13PlatformIOImp6sampleEi@Base 2.0.0-1
 _ZN5geopm13PlatformIOImpC1ENSt7__cxx114listISt10shared_ptrINS_7IOGroupEESaIS5_EEERKNS_12PlatformTopoE@Base 2.0.0-1
 _ZN5geopm13PlatformIOImpC1Ev@Base 2.0.0-1
 _ZN5geopm13PlatformIOImpC2ENSt7__cxx114listISt10shared_ptrINS_7IOGroupEESaIS5_EEERKNS_12PlatformTopoE@Base 2.0.0-1
 _ZN5geopm13PlatformIOImpC2Ev@Base 2.0.0-1
 _ZN5geopm13PluginFactoryINS_7IOGroupEE18m_empty_dictionaryB5cxx11E@Base 2.0.0-1
 _ZN5geopm13arch_msr_jsonB5cxx11Ev@Base 2.0.0-1
 _ZN5geopm13error_messageB5cxx11Ei@Base 2.0.0-1
 _ZN5geopm13platform_topoEv@Base 2.0.0-1
 _ZN5geopm14BatchClientImp10read_batchEv@Base 2.0.0-1
 _ZN5geopm14BatchClientImp10stop_batchEv@Base 2.0.0-1
 _ZN5geopm14BatchClientImp11write_batchESt6vectorIdSaIdEE@Base 2.0.0-1
 _ZN5geopm14BatchClientImpC1ERKNSt7__cxx1112basic_stringIcSt11char_traitsIcESaIcEEEdii@Base 2.0.0-1
 _ZN5geopm14BatchClientImpC1EiiSt10shared_ptrINS_11BatchStatusEES1_INS_12SharedMemoryEES5_@Base 2.0.0-1
 _ZN5geopm14BatchClientImpC2ERKNSt7__cxx1112basic_stringIcSt11char_traitsIcESaIcEEEdii@Base 2.0.0-1
 _ZN5geopm14BatchClientImpC2EiiSt10shared_ptrINS_11BatchStatusEES1_INS_12SharedMemoryEES5_@Base 2.0.0-1
 _ZN5geopm14BatchServerImp10event_loopEv@Base 2.0.0-1
 _ZN5geopm14BatchServerImp10stop_batchEv@Base 2.0.0-1
 _ZN5geopm14BatchServerImp12create_shmemEv@Base 2.0.0-1
 _ZN5geopm14BatchServerImp12read_messageEv@Base 2.0.0-1
 _ZN5geopm14BatchServerImp13push_requestsEv@Base 2.0.0-1
 _ZN5geopm14BatchServerImp13write_messageEc@Base 2.0.0-1
 _ZN5geopm14BatchServerImp15fork_with_setupESt8functionIFcvEES1_IFvvEE@Base 2.0.0-1
 _ZN5geopm14BatchServerImp15read_and_updateEv@Base 2.0.0-1
 _ZN5geopm14BatchServerImp16update_and_writeEv@Base 2.0.0-1
 _ZN5geopm14BatchServerImp22child_register_handlerEv@Base 2.0.0-1
 _ZN5geopm14BatchServerImp23parent_register_handlerEv@Base 2.0.0-1
 _ZN5geopm14BatchServerImp9is_activeEv@Base 2.0.0-1
 _ZN5geopm14BatchServerImp9run_batchEv@Base 2.0.0-1
 _ZN5geopm14BatchServerImpC1EiRKSt6vectorI15geopm_request_sSaIS2_EES6_@Base 2.0.0-1
 _ZN5geopm14BatchServerImpC1EiRKSt6vectorI15geopm_request_sSaIS2_EES6_RKNSt7__cxx1112basic_stringIcSt11char_traitsIcESaIcEEESE_RNS_10PlatformIOESt10shared_ptrINS_11BatchStatusEESH_INS_11POSIXSignalEESH_INS_12SharedMemoryEESN_i@Base 2.0.0-1
 _ZN5geopm14BatchServerImpC2EiRKSt6vectorI15geopm_request_sSaIS2_EES6_@Base 2.0.0-1
 _ZN5geopm14BatchServerImpC2EiRKSt6vectorI15geopm_request_sSaIS2_EES6_RKNSt7__cxx1112basic_stringIcSt11char_traitsIcESaIcEEESE_RNS_10PlatformIOESt10shared_ptrINS_11BatchStatusEESH_INS_11POSIXSignalEESH_INS_12SharedMemoryEESN_i@Base 2.0.0-1
 _ZN5geopm14BatchServerImpD0Ev@Base 2.0.0-1
 _ZN5geopm14BatchServerImpD1Ev@Base 2.0.0-1
 _ZN5geopm14BatchServerImpD2Ev@Base 2.0.0-1
 _ZN5geopm14BatchStatusImp12check_returnEiRKNSt7__cxx1112basic_stringIcSt11char_traitsIcESaIcEEE@Base 2.0.0-1
 _ZN5geopm14BatchStatusImp12send_messageEc@Base 2.0.0-1
 _ZN5geopm14BatchStatusImp15receive_messageEc@Base 2.0.0-1
 _ZN5geopm14BatchStatusImp15receive_messageEv@Base 2.0.0-1
 _ZN5geopm14BatchStatusImpC1Eii@Base 2.0.0-1
 _ZN5geopm14BatchStatusImpC2Eii@Base 2.0.0-1
 _ZN5geopm14CombinedSignal6sampleERKSt6vectorIdSaIdEE@Base 2.0.0-1
 _ZN5geopm14CombinedSignalC1ESt8functionIFdRKSt6vectorIdSaIdEEEE@Base 2.0.0-1
 _ZN5geopm14CombinedSignalC1Ev@Base 2.0.0-1
 _ZN5geopm14CombinedSignalC2ESt8functionIFdRKSt6vectorIdSaIdEEEE@Base 2.0.0-1
 _ZN5geopm14CombinedSignalC2Ev@Base 2.0.0-1
 _ZN5geopm14CpuinfoIOGroup10read_batchEv@Base 2.0.0-1
 _ZN5geopm14CpuinfoIOGroup11make_pluginEv@Base 2.0.0-1
 _ZN5geopm14CpuinfoIOGroup11plugin_nameB5cxx11Ev@Base 2.0.0-1
 _ZN5geopm14CpuinfoIOGroup11push_signalERKNSt7__cxx1112basic_stringIcSt11char_traitsIcESaIcEEEii@Base 2.0.0-1
 _ZN5geopm14CpuinfoIOGroup11read_signalERKNSt7__cxx1112basic_stringIcSt11char_traitsIcESaIcEEEii@Base 2.0.0-1
 _ZN5geopm14CpuinfoIOGroup11write_batchEv@Base 2.0.0-1
 _ZN5geopm14CpuinfoIOGroup12push_controlERKNSt7__cxx1112basic_stringIcSt11char_traitsIcESaIcEEEii@Base 2.0.0-1
 _ZN5geopm14CpuinfoIOGroup12save_controlERKNSt7__cxx1112basic_stringIcSt11char_traitsIcESaIcEEE@Base 2.0.0-1
 _ZN5geopm14CpuinfoIOGroup12save_controlEv@Base 2.0.0-1
 _ZN5geopm14CpuinfoIOGroup13write_controlERKNSt7__cxx1112basic_stringIcSt11char_traitsIcESaIcEEEiid@Base 2.0.0-1
 _ZN5geopm14CpuinfoIOGroup15restore_controlERKNSt7__cxx1112basic_stringIcSt11char_traitsIcESaIcEEE@Base 2.0.0-1
 _ZN5geopm14CpuinfoIOGroup15restore_controlEv@Base 2.0.0-1
 _ZN5geopm14CpuinfoIOGroup21register_signal_aliasERKNSt7__cxx1112basic_stringIcSt11char_traitsIcESaIcEEES8_@Base 2.0.0-1
 _ZN5geopm14CpuinfoIOGroup6adjustEid@Base 2.0.0-1
 _ZN5geopm14CpuinfoIOGroup6sampleEi@Base 2.0.0-1
 _ZN5geopm14CpuinfoIOGroupC1ERKNSt7__cxx1112basic_stringIcSt11char_traitsIcESaIcEEES8_@Base 2.0.0-1
 _ZN5geopm14CpuinfoIOGroupC1Ev@Base 2.0.0-1
 _ZN5geopm14CpuinfoIOGroupC2ERKNSt7__cxx1112basic_stringIcSt11char_traitsIcESaIcEEES8_@Base 2.0.0-1
 _ZN5geopm14CpuinfoIOGroupC2Ev@Base 2.0.0-1
 _ZN5geopm14IOGroupFactoryC1Ev@Base 2.0.0-1
 _ZN5geopm14IOGroupFactoryC2Ev@Base 2.0.0-1
 _ZN5geopm14MSRFieldSignal11setup_batchEv@Base 2.0.0-1
 _ZN5geopm14MSRFieldSignal6sampleEv@Base 2.0.0-1
 _ZN5geopm14MSRFieldSignalC1ESt10shared_ptrINS_6SignalEEiiid@Base 2.0.0-1
 _ZN5geopm14MSRFieldSignalC2ESt10shared_ptrINS_6SignalEEiiid@Base 2.0.0-1
 _ZN5geopm14SaveControlImp4jsonB5cxx11ERKSt6vectorINS_11SaveControl11m_setting_sESaIS3_EE@Base 2.0.0-1
 _ZN5geopm14SaveControlImp8settingsERKNSt7__cxx1112basic_stringIcSt11char_traitsIcESaIcEEE@Base 2.0.0-1
 _ZN5geopm14SaveControlImp8settingsERNS_7IOGroupERKNS_12PlatformTopoE@Base 2.0.0-1
 _ZN5geopm14SaveControlImpC1ERKNSt7__cxx1112basic_stringIcSt11char_traitsIcESaIcEEE@Base 2.0.0-1
 _ZN5geopm14SaveControlImpC1ERKSt6vectorINS_11SaveControl11m_setting_sESaIS3_EE@Base 2.0.0-1
 _ZN5geopm14SaveControlImpC1ERNS_7IOGroupERKNS_12PlatformTopoE@Base 2.0.0-1
 _ZN5geopm14SaveControlImpC2ERKNSt7__cxx1112basic_stringIcSt11char_traitsIcESaIcEEE@Base 2.0.0-1
 _ZN5geopm14SaveControlImpC2ERKSt6vectorINS_11SaveControl11m_setting_sESaIS3_EE@Base 2.0.0-1
 _ZN5geopm14SaveControlImpC2ERNS_7IOGroupERKNS_12PlatformTopoE@Base 2.0.0-1
 _ZN5geopm14ServiceIOGroup10read_batchEv@Base 2.0.0-1
 _ZN5geopm14ServiceIOGroup11make_pluginEv@Base 2.0.0-1
 _ZN5geopm14ServiceIOGroup11plugin_nameB5cxx11Ev@Base 2.0.0-1
 _ZN5geopm14ServiceIOGroup11push_signalERKNSt7__cxx1112basic_stringIcSt11char_traitsIcESaIcEEEii@Base 2.0.0-1
 _ZN5geopm14ServiceIOGroup11read_signalERKNSt7__cxx1112basic_stringIcSt11char_traitsIcESaIcEEEii@Base 2.0.0-1
 _ZN5geopm14ServiceIOGroup11write_batchEv@Base 2.0.0-1
 _ZN5geopm14ServiceIOGroup12push_controlERKNSt7__cxx1112basic_stringIcSt11char_traitsIcESaIcEEEii@Base 2.0.0-1
 _ZN5geopm14ServiceIOGroup12save_controlERKNSt7__cxx1112basic_stringIcSt11char_traitsIcESaIcEEE@Base 2.0.0-1
 _ZN5geopm14ServiceIOGroup12save_controlEv@Base 2.0.0-1
 _ZN5geopm14ServiceIOGroup13M_PLUGIN_NAMEB5cxx11E@Base 2.0.0-1
 _ZN5geopm14ServiceIOGroup13write_controlERKNSt7__cxx1112basic_stringIcSt11char_traitsIcESaIcEEEiid@Base 2.0.0-1
 _ZN5geopm14ServiceIOGroup15restore_controlERKNSt7__cxx1112basic_stringIcSt11char_traitsIcESaIcEEE@Base 2.0.0-1
 _ZN5geopm14ServiceIOGroup15restore_controlEv@Base 2.0.0-1
 _ZN5geopm14ServiceIOGroup17init_batch_serverEv@Base 2.0.0-1
 _ZN5geopm14ServiceIOGroup17strip_plugin_nameERKNSt7__cxx1112basic_stringIcSt11char_traitsIcESaIcEEE@Base 2.0.0-1
 _ZN5geopm14ServiceIOGroup19service_signal_infoB5cxx11ESt10shared_ptrINS_12ServiceProxyEE@Base 2.0.0-1
 _ZN5geopm14ServiceIOGroup20service_control_infoB5cxx11ESt10shared_ptrINS_12ServiceProxyEE@Base 2.0.0-1
 _ZN5geopm14ServiceIOGroup6adjustEid@Base 2.0.0-1
 _ZN5geopm14ServiceIOGroup6sampleEi@Base 2.0.0-1
 _ZN5geopm14ServiceIOGroupC1ERKNS_12PlatformTopoESt10shared_ptrINS_12ServiceProxyEES4_INS_11BatchClientEE@Base 2.0.0-1
 _ZN5geopm14ServiceIOGroupC1Ev@Base 2.0.0-1
 _ZN5geopm14ServiceIOGroupC2ERKNS_12PlatformTopoESt10shared_ptrINS_12ServiceProxyEES4_INS_11BatchClientEE@Base 2.0.0-1
 _ZN5geopm14ServiceIOGroupC2Ev@Base 2.0.0-1
 _ZN5geopm14ServiceIOGroupD0Ev@Base 2.0.0-1
 _ZN5geopm14ServiceIOGroupD1Ev@Base 2.0.0-1
 _ZN5geopm14ServiceIOGroupD2Ev@Base 2.0.0-1
 _ZN5geopm15CombinedControl6adjustEd@Base 2.0.0-1
 _ZN5geopm15CombinedControlC1Ed@Base 2.0.0-1
 _ZN5geopm15CombinedControlC1Ev@Base 2.0.0-1
 _ZN5geopm15CombinedControlC2Ed@Base 2.0.0-1
 _ZN5geopm15CombinedControlC2Ev@Base 2.0.0-1
 _ZN5geopm15IOUringFallback10prep_writeESt10shared_ptrIiEiPKvjl@Base 2.0.0-1
 _ZN5geopm15IOUringFallback11make_uniqueEj@Base 2.0.0-1
 _ZN5geopm15IOUringFallback6submitEv@Base 2.0.0-1
 _ZN5geopm15IOUringFallback9prep_readESt10shared_ptrIiEiPvjl@Base 2.0.0-1
 _ZN5geopm15IOUringFallbackC1Ej@Base 2.0.0-1
 _ZN5geopm15IOUringFallbackC2Ej@Base 2.0.0-1
 _ZN5geopm15IOUringFallbackD0Ev@Base 2.0.0-1
 _ZN5geopm15IOUringFallbackD1Ev@Base 2.0.0-1
 _ZN5geopm15IOUringFallbackD2Ev@Base 2.0.0-1
 _ZN5geopm15LevelZeroSignal10set_sampleEd@Base 2.0.0-1
 _ZN5geopm15LevelZeroSignal11setup_batchEv@Base 2.0.0-1
 _ZN5geopm15LevelZeroSignal6sampleEv@Base 2.0.0-1
 _ZN5geopm15LevelZeroSignalC1ESt8functionIFdjEEjd@Base 2.0.0-1
 _ZN5geopm15LevelZeroSignalC2ESt8functionIFdjEEjd@Base 2.0.0-1
 _ZN5geopm15MSRFieldControl11setup_batchEv@Base 2.0.0-1
 _ZN5geopm15MSRFieldControl4saveEv@Base 2.0.0-1
 _ZN5geopm15MSRFieldControl5writeEd@Base 2.0.0-1
 _ZN5geopm15MSRFieldControl6adjustEd@Base 2.0.0-1
 _ZN5geopm15MSRFieldControl7restoreEv@Base 2.0.0-1
 _ZN5geopm15MSRFieldControlC1ESt10shared_ptrINS_5MSRIOEEimiiid@Base 2.0.0-1
 _ZN5geopm15MSRFieldControlC2ESt10shared_ptrINS_5MSRIOEEimiiid@Base 2.0.0-1
 _ZN5geopm15PlatformTopoImp10check_fileERKNSt7__cxx1112basic_stringIcSt11char_traitsIcESaIcEEE@Base 2.0.0-1
 _ZN5geopm15PlatformTopoImp10read_lscpuB5cxx11Ev@Base 2.0.0-1
 _ZN5geopm15PlatformTopoImp11parse_lscpuERKSt3mapINSt7__cxx1112basic_stringIcSt11char_traitsIcESaIcEEES7_St4lessIS7_ESaISt4pairIKS7_S7_EEERiSH_SH_@Base 2.0.0-1
 _ZN5geopm15PlatformTopoImp12create_cacheERKNSt7__cxx1112basic_stringIcSt11char_traitsIcESaIcEEE@Base 2.0.0-1
 _ZN5geopm15PlatformTopoImp12create_cacheERKNSt7__cxx1112basic_stringIcSt11char_traitsIcESaIcEEERKNS_7GPUTopoE@Base 2.0.0-1
 _ZN5geopm15PlatformTopoImp12create_cacheEv@Base 2.0.0-1
 _ZN5geopm15PlatformTopoImp14gpu_short_nameB5cxx11Ei@Base 2.0.0-1
 _ZN5geopm15PlatformTopoImp15parse_lscpu_gpuERKSt3mapINSt7__cxx1112basic_stringIcSt11char_traitsIcESaIcEEES7_St4lessIS7_ESaISt4pairIKS7_S7_EEEi@Base 2.0.0-1
 _ZN5geopm15PlatformTopoImp16parse_lscpu_numaERKSt3mapINSt7__cxx1112basic_stringIcSt11char_traitsIcESaIcEEES7_St4lessIS7_ESaISt4pairIKS7_S7_EEE@Base 2.0.0-1
 _ZN5geopm15PlatformTopoImp17M_CACHE_FILE_NAMEB5cxx11E@Base 2.0.0-1
 _ZN5geopm15PlatformTopoImp17try_service_proxyEv@Base 2.0.0-1
 _ZN5geopm15PlatformTopoImp25M_SERVICE_CACHE_FILE_NAMEB5cxx11E@Base 2.0.0-1
 _ZN5geopm15PlatformTopoImp5lscpuERSt3mapINSt7__cxx1112basic_stringIcSt11char_traitsIcESaIcEEES7_St4lessIS7_ESaISt4pairIKS7_S7_EEE@Base 2.0.0-1
 _ZN5geopm15PlatformTopoImpC1ERKNSt7__cxx1112basic_stringIcSt11char_traitsIcESaIcEEESt10shared_ptrINS_12ServiceProxyEE@Base 2.0.0-1
 _ZN5geopm15PlatformTopoImpC1Ev@Base 2.0.0-1
 _ZN5geopm15PlatformTopoImpC2ERKNSt7__cxx1112basic_stringIcSt11char_traitsIcESaIcEEESt10shared_ptrINS_12ServiceProxyEE@Base 2.0.0-1
 _ZN5geopm15PlatformTopoImpC2Ev@Base 2.0.0-1
 _ZN5geopm15SDBusMessageImp10get_sd_ptrEv@Base 2.0.0-1
 _ZN5geopm15SDBusMessageImp11read_doubleEv@Base 2.0.0-1
 _ZN5geopm15SDBusMessageImp11read_stringB5cxx11Ev@Base 2.0.0-1
 _ZN5geopm15SDBusMessageImp11was_successEv@Base 2.0.0-1
 _ZN5geopm15SDBusMessageImp12read_integerEv@Base 2.0.0-1
 _ZN5geopm15SDBusMessageImp14append_requestERK15geopm_request_s@Base 2.0.0-1
 _ZN5geopm15SDBusMessageImp14append_stringsERKSt6vectorINSt7__cxx1112basic_stringIcSt11char_traitsIcESaIcEEESaIS7_EE@Base 2.0.0-1
 _ZN5geopm15SDBusMessageImp14exit_containerEv@Base 2.0.0-1
 _ZN5geopm15SDBusMessageImp14open_containerEcRKNSt7__cxx1112basic_stringIcSt11char_traitsIcESaIcEEE@Base 2.0.0-1
 _ZN5geopm15SDBusMessageImp15close_containerEv@Base 2.0.0-1
 _ZN5geopm15SDBusMessageImp15enter_containerEcRKNSt7__cxx1112basic_stringIcSt11char_traitsIcESaIcEEE@Base 2.0.0-1
 _ZN5geopm15SDBusMessageImpC1EP14sd_bus_message@Base 2.0.0-1
 _ZN5geopm15SDBusMessageImpC1Ev@Base 2.0.0-1
 _ZN5geopm15SDBusMessageImpC2EP14sd_bus_message@Base 2.0.0-1
 _ZN5geopm15SDBusMessageImpC2Ev@Base 2.0.0-1
 _ZN5geopm15ServiceProxyImp14topo_get_cacheB5cxx11Ev@Base 2.0.0-1
 _ZN5geopm15ServiceProxyImp17read_string_arrayB5cxx11ESt10shared_ptrINS_12SDBusMessageEE@Base 2.0.0-1
 _ZN5geopm15ServiceProxyImp19platform_stop_batchEi@Base 2.0.0-1
 _ZN5geopm15ServiceProxyImp20platform_read_signalERKNSt7__cxx1112basic_stringIcSt11char_traitsIcESaIcEEEii@Base 2.0.0-1
 _ZN5geopm15ServiceProxyImp20platform_start_batchERKSt6vectorI15geopm_request_sSaIS2_EES6_RiRNSt7__cxx1112basic_stringIcSt11char_traitsIcESaIcEEE@Base 2.0.0-1
 _ZN5geopm15ServiceProxyImp21platform_open_sessionEv@Base 2.0.0-1
 _ZN5geopm15ServiceProxyImp21platform_stop_profileERKSt6vectorINSt7__cxx1112basic_stringIcSt11char_traitsIcESaIcEEESaIS7_EE@Base 2.0.0-1
 _ZN5geopm15ServiceProxyImp22platform_close_sessionEv@Base 2.0.0-1
 _ZN5geopm15ServiceProxyImp22platform_start_profileERKNSt7__cxx1112basic_stringIcSt11char_traitsIcESaIcEEE@Base 2.0.0-1
 _ZN5geopm15ServiceProxyImp22platform_write_controlERKNSt7__cxx1112basic_stringIcSt11char_traitsIcESaIcEEEiid@Base 2.0.0-1
 _ZN5geopm15ServiceProxyImp24platform_get_signal_infoERKSt6vectorINSt7__cxx1112basic_stringIcSt11char_traitsIcESaIcEEESaIS7_EE@Base 2.0.0-1
 _ZN5geopm15ServiceProxyImp24platform_get_user_accessERSt6vectorINSt7__cxx1112basic_stringIcSt11char_traitsIcESaIcEEESaIS7_EESA_@Base 2.0.0-1
 _ZN5geopm15ServiceProxyImp25platform_get_control_infoERKSt6vectorINSt7__cxx1112basic_stringIcSt11char_traitsIcESaIcEEESaIS7_EE@Base 2.0.0-1
 _ZN5geopm15ServiceProxyImp25platform_get_profile_pidsERKNSt7__cxx1112basic_stringIcSt11char_traitsIcESaIcEEE@Base 2.0.0-1
 _ZN5geopm15ServiceProxyImp33platform_get_profile_region_namesERKNSt7__cxx1112basic_stringIcSt11char_traitsIcESaIcEEE@Base 2.0.0-1
 _ZN5geopm15ServiceProxyImpC1ESt10shared_ptrINS_5SDBusEE@Base 2.0.0-1
 _ZN5geopm15ServiceProxyImpC1Ev@Base 2.0.0-1
 _ZN5geopm15ServiceProxyImpC2ESt10shared_ptrINS_5SDBusEE@Base 2.0.0-1
 _ZN5geopm15ServiceProxyImpC2Ev@Base 2.0.0-1
 _ZN5geopm15SharedMemoryImp15get_scoped_lockEv@Base 2.0.0-1
 _ZN5geopm15SharedMemoryImp18construct_shm_pathERKNSt7__cxx1112basic_stringIcSt11char_traitsIcESaIcEEE@Base 2.0.0-1
 _ZN5geopm15SharedMemoryImp20attach_memory_regionERKNSt7__cxx1112basic_stringIcSt11char_traitsIcESaIcEEEj@Base 2.0.0-1
 _ZN5geopm15SharedMemoryImp20create_memory_regionERKNSt7__cxx1112basic_stringIcSt11char_traitsIcESaIcEEEmb@Base 2.0.0-1
 _ZN5geopm15SharedMemoryImp6unlinkEv@Base 2.0.0-1
 _ZN5geopm15SharedMemoryImpC1Ev@Base 2.0.0-1
 _ZN5geopm15SharedMemoryImpC2Ev@Base 2.0.0-1
 _ZN5geopm15SharedMemoryImpD0Ev@Base 2.0.0-1
 _ZN5geopm15SharedMemoryImpD1Ev@Base 2.0.0-1
 _ZN5geopm15SharedMemoryImpD2Ev@Base 2.0.0-1
 _ZN5geopm15iogroup_factoryEv@Base 2.0.0-1
 _ZN5geopm15shmem_path_profERKNSt7__cxx1112basic_stringIcSt11char_traitsIcESaIcEEEii@Base 2.0.0-1
 _ZN5geopm16DerivativeSignal11setup_batchEv@Base 2.0.0-1
 _ZN5geopm16DerivativeSignal12compute_nextERNS_14CircularBufferINS0_10m_sample_sEEERidd@Base 2.0.0-1
 _ZN5geopm16DerivativeSignal6sampleEv@Base 2.0.0-1
 _ZN5geopm16DerivativeSignalC1ESt10shared_ptrINS_6SignalEES3_id@Base 2.0.0-1
 _ZN5geopm16DerivativeSignalC2ESt10shared_ptrINS_6SignalEES3_id@Base 2.0.0-1
 _ZN5geopm16DifferenceSignal11setup_batchEv@Base 2.0.0-1
 _ZN5geopm16DifferenceSignal6sampleEv@Base 2.0.0-1
 _ZN5geopm16DifferenceSignalC1ESt10shared_ptrINS_6SignalEES3_@Base 2.0.0-1
 _ZN5geopm16DifferenceSignalC2ESt10shared_ptrINS_6SignalEES3_@Base 2.0.0-1
 _ZN5geopm16GRPCServiceProxy14topo_get_cacheB5cxx11Ev@Base 2.0.0-1
 _ZN5geopm16GRPCServiceProxy19platform_stop_batchEi@Base 2.0.0-1
 _ZN5geopm16GRPCServiceProxy20platform_read_signalERKNSt7__cxx1112basic_stringIcSt11char_traitsIcESaIcEEEii@Base 2.0.0-1
 _ZN5geopm16GRPCServiceProxy20platform_start_batchERKSt6vectorI15geopm_request_sSaIS2_EES6_RiRNSt7__cxx1112basic_stringIcSt11char_traitsIcESaIcEEE@Base 2.0.0-1
 _ZN5geopm16GRPCServiceProxy21platform_open_sessionEv@Base 2.0.0-1
 _ZN5geopm16GRPCServiceProxy21platform_stop_profileERKSt6vectorINSt7__cxx1112basic_stringIcSt11char_traitsIcESaIcEEESaIS7_EE@Base 2.0.0-1
 _ZN5geopm16GRPCServiceProxy22platform_close_sessionEv@Base 2.0.0-1
 _ZN5geopm16GRPCServiceProxy22platform_start_profileERKNSt7__cxx1112basic_stringIcSt11char_traitsIcESaIcEEE@Base 2.0.0-1
 _ZN5geopm16GRPCServiceProxy22platform_write_controlERKNSt7__cxx1112basic_stringIcSt11char_traitsIcESaIcEEEiid@Base 2.0.0-1
 _ZN5geopm16GRPCServiceProxy24platform_get_signal_infoERKSt6vectorINSt7__cxx1112basic_stringIcSt11char_traitsIcESaIcEEESaIS7_EE@Base 2.0.0-1
 _ZN5geopm16GRPCServiceProxy24platform_get_user_accessERSt6vectorINSt7__cxx1112basic_stringIcSt11char_traitsIcESaIcEEESaIS7_EESA_@Base 2.0.0-1
 _ZN5geopm16GRPCServiceProxy25platform_get_control_infoERKSt6vectorINSt7__cxx1112basic_stringIcSt11char_traitsIcESaIcEEESaIS7_EE@Base 2.0.0-1
 _ZN5geopm16GRPCServiceProxy25platform_get_profile_pidsERKNSt7__cxx1112basic_stringIcSt11char_traitsIcESaIcEEE@Base 2.0.0-1
 _ZN5geopm16GRPCServiceProxy33platform_get_profile_region_namesERKNSt7__cxx1112basic_stringIcSt11char_traitsIcESaIcEEE@Base 2.0.0-1
 _ZN5geopm16GRPCServiceProxyC1Ev@Base 2.0.0-1
 _ZN5geopm16GRPCServiceProxyC2Ev@Base 2.0.0-1
 _ZN5geopm16GRPCServiceProxyD0Ev@Base 2.0.0-1
 _ZN5geopm16GRPCServiceProxyD1Ev@Base 2.0.0-1
 _ZN5geopm16GRPCServiceProxyD2Ev@Base 2.0.0-1
 _ZN5geopm16LevelZeroGPUTopoC1ERKNS_19LevelZeroDevicePoolEi@Base 2.0.0-1
 _ZN5geopm16LevelZeroGPUTopoC1Ev@Base 2.0.0-1
 _ZN5geopm16LevelZeroGPUTopoC2ERKNS_19LevelZeroDevicePoolEi@Base 2.0.0-1
 _ZN5geopm16LevelZeroGPUTopoC2Ev@Base 2.0.0-1
 _ZN5geopm16LevelZeroIOGroup10read_batchEv@Base 2.0.0-1
 _ZN5geopm16LevelZeroIOGroup11make_pluginEv@Base 2.0.0-1
 _ZN5geopm16LevelZeroIOGroup11plugin_nameB5cxx11Ev@Base 2.0.0-1
 _ZN5geopm16LevelZeroIOGroup11push_signalERKNSt7__cxx1112basic_stringIcSt11char_traitsIcESaIcEEEii@Base 2.0.0-1
 _ZN5geopm16LevelZeroIOGroup11read_signalERKNSt7__cxx1112basic_stringIcSt11char_traitsIcESaIcEEEii@Base 2.0.0-1
 _ZN5geopm16LevelZeroIOGroup11write_batchEv@Base 2.0.0-1
 _ZN5geopm16LevelZeroIOGroup12push_controlERKNSt7__cxx1112basic_stringIcSt11char_traitsIcESaIcEEEii@Base 2.0.0-1
 _ZN5geopm16LevelZeroIOGroup12save_controlERKNSt7__cxx1112basic_stringIcSt11char_traitsIcESaIcEEE@Base 2.0.0-1
 _ZN5geopm16LevelZeroIOGroup12save_controlEv@Base 2.0.0-1
 _ZN5geopm16LevelZeroIOGroup13M_NAME_PREFIXB5cxx11E@Base 2.0.0-1
 _ZN5geopm16LevelZeroIOGroup13M_PLUGIN_NAMEB5cxx11E@Base 2.0.0-1
 _ZN5geopm16LevelZeroIOGroup13write_controlERKNSt7__cxx1112basic_stringIcSt11char_traitsIcESaIcEEEiid@Base 2.0.0-1
 _ZN5geopm16LevelZeroIOGroup15restore_controlERKNSt7__cxx1112basic_stringIcSt11char_traitsIcESaIcEEE@Base 2.0.0-1
 _ZN5geopm16LevelZeroIOGroup15restore_controlEv@Base 2.0.0-1
 _ZN5geopm16LevelZeroIOGroup21register_signal_aliasERKNSt7__cxx1112basic_stringIcSt11char_traitsIcESaIcEEES8_@Base 2.0.0-1
 _ZN5geopm16LevelZeroIOGroup22register_control_aliasERKNSt7__cxx1112basic_stringIcSt11char_traitsIcESaIcEEES8_@Base 2.0.0-1
 _ZN5geopm16LevelZeroIOGroup27register_derivative_signalsEv@Base 2.0.0-1
 _ZN5geopm16LevelZeroIOGroup6adjustEid@Base 2.0.0-1
 _ZN5geopm16LevelZeroIOGroup6sampleEi@Base 2.0.0-1
 _ZN5geopm16LevelZeroIOGroupC1ERKNS_12PlatformTopoERKNS_19LevelZeroDevicePoolESt10shared_ptrINS_11SaveControlEE@Base 2.0.0-1
 _ZN5geopm16LevelZeroIOGroupC1Ev@Base 2.0.0-1
 _ZN5geopm16LevelZeroIOGroupC2ERKNS_12PlatformTopoERKNS_19LevelZeroDevicePoolESt10shared_ptrINS_11SaveControlEE@Base 2.0.0-1
 _ZN5geopm16LevelZeroIOGroupC2Ev@Base 2.0.0-1
 _ZN5geopm16dcgm_device_poolEv@Base 2.0.0-1
 _ZN5geopm16nvml_device_poolEi@Base 2.0.0-1
 _ZN5geopm16string_ends_withENSt7__cxx1112basic_stringIcSt11char_traitsIcESaIcEEES5_@Base 2.0.0-1
 _ZN5geopm17BatchStatusClient9open_fifoEv@Base 2.0.0-1
 _ZN5geopm17BatchStatusClientC1ERKNSt7__cxx1112basic_stringIcSt11char_traitsIcESaIcEEE@Base 2.0.0-1
 _ZN5geopm17BatchStatusClientC1ERKNSt7__cxx1112basic_stringIcSt11char_traitsIcESaIcEEES8_@Base 2.0.0-1
 _ZN5geopm17BatchStatusClientC2ERKNSt7__cxx1112basic_stringIcSt11char_traitsIcESaIcEEE@Base 2.0.0-1
 _ZN5geopm17BatchStatusClientC2ERKNSt7__cxx1112basic_stringIcSt11char_traitsIcESaIcEEES8_@Base 2.0.0-1
 _ZN5geopm17BatchStatusClientD0Ev@Base 2.0.0-1
 _ZN5geopm17BatchStatusClientD1Ev@Base 2.0.0-1
 _ZN5geopm17BatchStatusClientD2Ev@Base 2.0.0-1
 _ZN5geopm17BatchStatusServer9open_fifoEv@Base 2.0.0-1
 _ZN5geopm17BatchStatusServerC1EiRKNSt7__cxx1112basic_stringIcSt11char_traitsIcESaIcEEE@Base 2.0.0-1
 _ZN5geopm17BatchStatusServerC1EiRKNSt7__cxx1112basic_stringIcSt11char_traitsIcESaIcEEES8_@Base 2.0.0-1
 _ZN5geopm17BatchStatusServerC2EiRKNSt7__cxx1112basic_stringIcSt11char_traitsIcESaIcEEE@Base 2.0.0-1
 _ZN5geopm17BatchStatusServerC2EiRKNSt7__cxx1112basic_stringIcSt11char_traitsIcESaIcEEES8_@Base 2.0.0-1
 _ZN5geopm17BatchStatusServerD0Ev@Base 2.0.0-1
 _ZN5geopm17BatchStatusServerD1Ev@Base 2.0.0-1
 _ZN5geopm17BatchStatusServerD2Ev@Base 2.0.0-1
 _ZN5geopm17exception_handlerENSt15__exception_ptr13exception_ptrEb@Base 2.0.0-1
 _ZN5geopm17shmem_create_profERKNSt7__cxx1112basic_stringIcSt11char_traitsIcESaIcEEEmiii@Base 2.0.0-1
 _ZN5geopm17string_format_hexB5cxx11Ed@Base 2.0.0-1
 _ZN5geopm18ConstConfigIOGroup10read_batchEv@Base 2.0.0-1
 _ZN5geopm18ConstConfigIOGroup11make_pluginEv@Base 2.0.0-1
 _ZN5geopm18ConstConfigIOGroup11plugin_nameB5cxx11Ev@Base 2.0.0-1
 _ZN5geopm18ConstConfigIOGroup11push_signalERKNSt7__cxx1112basic_stringIcSt11char_traitsIcESaIcEEEii@Base 2.0.0-1
 _ZN5geopm18ConstConfigIOGroup11read_signalERKNSt7__cxx1112basic_stringIcSt11char_traitsIcESaIcEEEii@Base 2.0.0-1
 _ZN5geopm18ConstConfigIOGroup11write_batchEv@Base 2.0.0-1
 _ZN5geopm18ConstConfigIOGroup12push_controlERKNSt7__cxx1112basic_stringIcSt11char_traitsIcESaIcEEEii@Base 2.0.0-1
 _ZN5geopm18ConstConfigIOGroup12save_controlERKNSt7__cxx1112basic_stringIcSt11char_traitsIcESaIcEEE@Base 2.0.0-1
 _ZN5geopm18ConstConfigIOGroup12save_controlEv@Base 2.0.0-1
 _ZN5geopm18ConstConfigIOGroup13M_PLUGIN_NAMEB5cxx11E@Base 2.0.0-1
 _ZN5geopm18ConstConfigIOGroup13write_controlERKNSt7__cxx1112basic_stringIcSt11char_traitsIcESaIcEEEiid@Base 2.0.0-1
 _ZN5geopm18ConstConfigIOGroup15M_SIGNAL_FIELDSB5cxx11E@Base 2.0.0-1
 _ZN5geopm18ConstConfigIOGroup15M_SIGNAL_PREFIXB5cxx11E@Base 2.0.0-1
 _ZN5geopm18ConstConfigIOGroup15restore_controlERKNSt7__cxx1112basic_stringIcSt11char_traitsIcESaIcEEE@Base 2.0.0-1
 _ZN5geopm18ConstConfigIOGroup15restore_controlEv@Base 2.0.0-1
 _ZN5geopm18ConstConfigIOGroup17M_CONFIG_PATH_ENVB5cxx11E@Base 2.0.0-1
 _ZN5geopm18ConstConfigIOGroup17check_json_signalERKSt4pairIKNSt7__cxx1112basic_stringIcSt11char_traitsIcESaIcEEEN6json114JsonEE@Base 2.0.0-1
 _ZN5geopm18ConstConfigIOGroup17parse_config_jsonERKNSt7__cxx1112basic_stringIcSt11char_traitsIcESaIcEEE@Base 2.0.0-1
 _ZN5geopm18ConstConfigIOGroup25construct_config_json_objERKNSt7__cxx1112basic_stringIcSt11char_traitsIcESaIcEEE@Base 2.0.0-1
 _ZN5geopm18ConstConfigIOGroup26M_DEFAULT_CONFIG_FILE_PATHB5cxx11E@Base 2.0.0-1
 _ZN5geopm18ConstConfigIOGroup6adjustEid@Base 2.0.0-1
 _ZN5geopm18ConstConfigIOGroup6sampleEi@Base 2.0.0-1
 _ZN5geopm18ConstConfigIOGroupC1ERKNS_12PlatformTopoERKNSt7__cxx1112basic_stringIcSt11char_traitsIcESaIcEEESB_@Base 2.0.0-1
 _ZN5geopm18ConstConfigIOGroupC1Ev@Base 2.0.0-1
 _ZN5geopm18ConstConfigIOGroupC2ERKNS_12PlatformTopoERKNSt7__cxx1112basic_stringIcSt11char_traitsIcESaIcEEESB_@Base 2.0.0-1
 _ZN5geopm18ConstConfigIOGroupC2Ev@Base 2.0.0-1
 _ZN5geopm18string_begins_withERKNSt7__cxx1112basic_stringIcSt11char_traitsIcESaIcEEES7_@Base 2.0.0-1
 _ZN5geopm19string_format_floatB5cxx11Ed@Base 2.0.0-1
 _ZN5geopm19string_format_raw64B5cxx11Ed@Base 2.0.0-1
 _ZN5geopm20MultiplicationSignal11setup_batchEv@Base 2.0.0-1
 _ZN5geopm20MultiplicationSignal6sampleEv@Base 2.0.0-1
 _ZN5geopm20MultiplicationSignalC1ESt10shared_ptrINS_6SignalEEd@Base 2.0.0-1
 _ZN5geopm20MultiplicationSignalC2ESt10shared_ptrINS_6SignalEEd@Base 2.0.0-1
 _ZN5geopm20list_directory_filesERKNSt7__cxx1112basic_stringIcSt11char_traitsIcESaIcEEE@Base 2.0.0-1
 _ZN5geopm20string_format_doubleB5cxx11Ed@Base 2.0.0-1
 _ZN5geopm21levelzero_device_poolEv@Base 2.0.0-1
 _ZN5geopm21read_double_from_fileERKNSt7__cxx1112basic_stringIcSt11char_traitsIcESaIcEEES7_@Base 2.0.0-1
 _ZN5geopm21string_format_integerB5cxx11Ed@Base 2.0.0-1
 _ZN5geopm22LevelZeroDevicePoolImpC1ERKNS_9LevelZeroE@Base 2.0.0-1
 _ZN5geopm22LevelZeroDevicePoolImpC1Ev@Base 2.0.0-1
 _ZN5geopm22LevelZeroDevicePoolImpC2ERKNS_9LevelZeroE@Base 2.0.0-1
 _ZN5geopm22LevelZeroDevicePoolImpC2Ev@Base 2.0.0-1
 _ZN5geopm22SharedMemoryScopedLockC1EP15pthread_mutex_t@Base 2.0.0-1
 _ZN5geopm22SharedMemoryScopedLockC2EP15pthread_mutex_t@Base 2.0.0-1
 _ZN5geopm22SharedMemoryScopedLockD0Ev@Base 2.0.0-1
 _ZN5geopm22SharedMemoryScopedLockD1Ev@Base 2.0.0-1
 _ZN5geopm22SharedMemoryScopedLockD2Ev@Base 2.0.0-1
 _ZN5geopm25check_expected_key_valuesERKN6json114JsonERKSt3mapINSt7__cxx1112basic_stringIcSt11char_traitsIcESaIcEEENS_12json_checkerESt4lessISA_ESaISt4pairIKSA_SB_EEESK_RSF_@Base 2.0.0-1
 _ZN5geopm30string_format_function_to_typeESt8functionIFNSt7__cxx1112basic_stringIcSt11char_traitsIcESaIcEEEdEE@Base 2.0.0-1
 _ZN5geopm30string_format_type_to_functionB5cxx11Ei@Base 2.0.0-1
 _ZN5geopm3Agg10logical_orERKSt6vectorIdSaIdEE@Base 2.0.0-1
 _ZN5geopm3Agg11expect_sameERKSt6vectorIdSaIdEE@Base 2.0.0-1
 _ZN5geopm3Agg11logical_andERKSt6vectorIdSaIdEE@Base 2.0.0-1
 _ZN5geopm3Agg11region_hashERKSt6vectorIdSaIdEE@Base 2.0.0-1
 _ZN5geopm3Agg11region_hintERKSt6vectorIdSaIdEE@Base 2.0.0-1
 _ZN5geopm3Agg12select_firstERKSt6vectorIdSaIdEE@Base 2.0.0-1
 _ZN5geopm3Agg12type_to_nameB5cxx11Ei@Base 2.0.0-1
 _ZN5geopm3Agg16function_to_nameB5cxx11ESt8functionIFdRKSt6vectorIdSaIdEEEE@Base 2.0.0-1
 _ZN5geopm3Agg16function_to_typeESt8functionIFdRKSt6vectorIdSaIdEEEE@Base 2.0.0-1
 _ZN5geopm3Agg16name_to_functionERKNSt7__cxx1112basic_stringIcSt11char_traitsIcESaIcEEE@Base 2.0.0-1
 _ZN5geopm3Agg16type_to_functionEi@Base 2.0.0-1
 _ZN5geopm3Agg18integer_bitwise_orERKSt6vectorIdSaIdEE@Base 2.0.0-1
 _ZN5geopm3Agg3maxERKSt6vectorIdSaIdEE@Base 2.0.0-1
 _ZN5geopm3Agg3minERKSt6vectorIdSaIdEE@Base 2.0.0-1
 _ZN5geopm3Agg3sumERKSt6vectorIdSaIdEE@Base 2.0.0-1
 _ZN5geopm3Agg6medianERKSt6vectorIdSaIdEE@Base 2.0.0-1
 _ZN5geopm3Agg6stddevERKSt6vectorIdSaIdEE@Base 2.0.0-1
 _ZN5geopm3Agg7averageERKSt6vectorIdSaIdEE@Base 2.0.0-1
 _ZN5geopm3MSR17M_FUNCTION_STRINGB5cxx11E@Base 2.0.0-1
 _ZN5geopm3MSR18string_to_functionERKNSt7__cxx1112basic_stringIcSt11char_traitsIcESaIcEEE@Base 2.0.0-1
 _ZN5geopm5MSRIO11make_sharedEv@Base 2.0.0-1
 _ZN5geopm5MSRIO11make_uniqueEv@Base 2.0.0-1
 _ZN5geopm5SDBus11make_uniqueEv@Base 2.0.0-1
 _ZN5geopm5SSTIO11make_sharedEj@Base 2.0.0-1
 _ZN5geopm7IOGroup11M_BEHAVIORSB5cxx11E@Base 2.0.0-1
 _ZN5geopm7IOGroup11make_uniqueERKNSt7__cxx1112basic_stringIcSt11char_traitsIcESaIcEEE@Base 2.0.0-1
 _ZN5geopm7IOGroup13iogroup_namesB5cxx11Ev@Base 2.0.0-1
 _ZN5geopm7IOGroup14M_UNITS_STRINGB5cxx11E@Base 2.0.0-1
 _ZN5geopm7IOGroup15M_PLUGIN_PREFIXB5cxx11E@Base 2.0.0-1
 _ZN5geopm7IOGroup15string_to_unitsERKNSt7__cxx1112basic_stringIcSt11char_traitsIcESaIcEEE@Base 2.0.0-1
 _ZN5geopm7IOGroup15units_to_stringB5cxx11Ei@Base 2.0.0-1
 _ZN5geopm7IOGroup17M_BEHAVIOR_STRINGB5cxx11E@Base 2.0.0-1
 _ZN5geopm7IOGroup18string_to_behaviorERKNSt7__cxx1112basic_stringIcSt11char_traitsIcESaIcEEE@Base 2.0.0-1
 _ZN5geopm7IOGroup7M_UNITSB5cxx11E@Base 2.0.0-1
 _ZN5geopm7IOUring11make_uniqueEj@Base 2.0.0-1
 _ZN5geopm7MSRPath14msr_batch_pathB5cxx11Ev@Base 2.0.0-1
 _ZN5geopm7MSRPath8msr_pathB5cxx11Eii@Base 2.0.0-1
 _ZN5geopm7get_envERKNSt7__cxx1112basic_stringIcSt11char_traitsIcESaIcEEE@Base 2.0.0-1
 _ZN5geopm8MSRIOImp10read_batchEv@Base 2.0.0-1
 _ZN5geopm8MSRIOImp11write_batchEv@Base 2.0.0-1
 _ZN5geopm8MSRIOImp12msr_batch_ioERNS_7IOUringERNS0_19m_msr_batch_array_sE@Base 2.0.0-1
 _ZN5geopm8MSRIOImp13msr_rmw_filesEv@Base 2.0.0-1
 _ZN5geopm8MSRIOImp14msr_batch_descEv@Base 2.0.0-1
 _ZN5geopm8MSRIOImp14msr_ioctl_readEv@Base 2.0.0-1
 _ZN5geopm8MSRIOImp14msr_read_filesEv@Base 2.0.0-1
 _ZN5geopm8MSRIOImp14open_msr_batchEv@Base 2.0.0-1
 _ZN5geopm8MSRIOImp15close_msr_batchEv@Base 2.0.0-1
 _ZN5geopm8MSRIOImp15msr_ioctl_writeEv@Base 2.0.0-1
 _ZN5geopm8MSRIOImp17system_write_maskEm@Base 2.0.0-1
 _ZN5geopm8MSRIOImp6adjustEimm@Base 2.0.0-1
 _ZN5geopm8MSRIOImp8add_readEim@Base 2.0.0-1
 _ZN5geopm8MSRIOImp8msr_descEi@Base 2.0.0-1
 _ZN5geopm8MSRIOImp8open_allEv@Base 2.0.0-1
 _ZN5geopm8MSRIOImp8open_msrEi@Base 2.0.0-1
 _ZN5geopm8MSRIOImp8read_msrEim@Base 2.0.0-1
 _ZN5geopm8MSRIOImp9add_writeEim@Base 2.0.0-1
 _ZN5geopm8MSRIOImp9close_allEv@Base 2.0.0-1
 _ZN5geopm8MSRIOImp9close_msrEi@Base 2.0.0-1
 _ZN5geopm8MSRIOImp9msr_ioctlERNS0_19m_msr_batch_array_sE@Base 2.0.0-1
 _ZN5geopm8MSRIOImp9write_msrEimmm@Base 2.0.0-1
 _ZN5geopm8MSRIOImpC1EiSt10shared_ptrINS_7MSRPathEES1_INS_7IOUringEES5_@Base 2.0.0-1
 _ZN5geopm8MSRIOImpC1Ev@Base 2.0.0-1
 _ZN5geopm8MSRIOImpC2EiSt10shared_ptrINS_7MSRPathEES1_INS_7IOUringEES5_@Base 2.0.0-1
 _ZN5geopm8MSRIOImpC2Ev@Base 2.0.0-1
 _ZN5geopm8MSRIOImpD0Ev@Base 2.0.0-1
 _ZN5geopm8MSRIOImpD1Ev@Base 2.0.0-1
 _ZN5geopm8MSRIOImpD2Ev@Base 2.0.0-1
 _ZN5geopm8SDBusImp11call_methodERKNSt7__cxx1112basic_stringIcSt11char_traitsIcESaIcEEE@Base 2.0.0-1
 _ZN5geopm8SDBusImp11call_methodERKNSt7__cxx1112basic_stringIcSt11char_traitsIcESaIcEEES8_@Base 2.0.0-1
 _ZN5geopm8SDBusImp11call_methodERKNSt7__cxx1112basic_stringIcSt11char_traitsIcESaIcEEES8_ii@Base 2.0.0-1
 _ZN5geopm8SDBusImp11call_methodERKNSt7__cxx1112basic_stringIcSt11char_traitsIcESaIcEEES8_iid@Base 2.0.0-1
 _ZN5geopm8SDBusImp11call_methodERKNSt7__cxx1112basic_stringIcSt11char_traitsIcESaIcEEEi@Base 2.0.0-1
 _ZN5geopm8SDBusImp11call_methodESt10shared_ptrINS_12SDBusMessageEE@Base 2.0.0-1
 _ZN5geopm8SDBusImp17make_call_messageERKNSt7__cxx1112basic_stringIcSt11char_traitsIcESaIcEEE@Base 2.0.0-1
 _ZN5geopm8SDBusImpC1Ev@Base 2.0.0-1
 _ZN5geopm8SDBusImpC2Ev@Base 2.0.0-1
 _ZN5geopm8SDBusImpD0Ev@Base 2.0.0-1
 _ZN5geopm8SDBusImpD1Ev@Base 2.0.0-1
 _ZN5geopm8SDBusImpD2Ev@Base 2.0.0-1
 _ZN5geopm8SSTIOImp10read_batchEv@Base 2.0.0-1
 _ZN5geopm8SSTIOImp11write_batchEv@Base 2.0.0-1
 _ZN5geopm8SSTIOImp13add_mbox_readEjttj@Base 2.0.0-1
 _ZN5geopm8SSTIOImp13add_mmio_readEjt@Base 2.0.0-1
 _ZN5geopm8SSTIOImp14add_mbox_writeEjttjtjj@Base 2.0.0-1
 _ZN5geopm8SSTIOImp14add_mmio_writeEjtjj@Base 2.0.0-1
 _ZN5geopm8SSTIOImp14read_mbox_onceEjttj@Base 2.0.0-1
 _ZN5geopm8SSTIOImp14read_mmio_onceEjt@Base 2.0.0-1
 _ZN5geopm8SSTIOImp15write_mbox_onceEjttjtjjmm@Base 2.0.0-1
 _ZN5geopm8SSTIOImp15write_mmio_onceEjtjjmm@Base 2.0.0-1
 _ZN5geopm8SSTIOImp18get_punit_from_cpuEj@Base 2.0.0-1
 _ZN5geopm8SSTIOImp6adjustEimm@Base 2.0.0-1
 _ZN5geopm8SSTIOImpC1Ej@Base 2.0.0-1
 _ZN5geopm8SSTIOImpC1EjSt10shared_ptrINS_8SSTIoctlEE@Base 2.0.0-1
 _ZN5geopm8SSTIOImpC2Ej@Base 2.0.0-1
 _ZN5geopm8SSTIOImpC2EjSt10shared_ptrINS_8SSTIoctlEE@Base 2.0.0-1
 _ZN5geopm8SSTIoctl11make_sharedERKNSt7__cxx1112basic_stringIcSt11char_traitsIcESaIcEEE@Base 2.0.0-1
 _ZN5geopm8TimeZero9time_zeroEv@Base 2.0.0-1
 _ZN5geopm8TimeZeroC1Ev@Base 2.0.0-1
 _ZN5geopm8TimeZeroC2Ev@Base 2.0.0-1
 _ZN5geopm8gpu_topoEv@Base 2.0.0-1
 _ZN5geopm8hostnameB5cxx11Ev@Base 2.0.0-1
 _ZN5geopm9ExceptionC1ERKNSt7__cxx1112basic_stringIcSt11char_traitsIcESaIcEEEiPKci@Base 2.0.0-1
 _ZN5geopm9ExceptionC1ERKS0_@Base 2.0.0-1
 _ZN5geopm9ExceptionC1Ev@Base 2.0.0-1
 _ZN5geopm9ExceptionC2ERKNSt7__cxx1112basic_stringIcSt11char_traitsIcESaIcEEEiPKci@Base 2.0.0-1
 _ZN5geopm9ExceptionC2ERKS0_@Base 2.0.0-1
 _ZN5geopm9ExceptionC2Ev@Base 2.0.0-1
 _ZN5geopm9ExceptionaSERKS0_@Base 2.0.0-1
 _ZN5geopm9SSTSignal11setup_batchEv@Base 2.0.0-1
 _ZN5geopm9SSTSignal6sampleEv@Base 2.0.0-1
 _ZN5geopm9SSTSignalC1ESt10shared_ptrINS_5SSTIOEENS0_10SignalTypeEittjj@Base 2.0.0-1
 _ZN5geopm9SSTSignalC2ESt10shared_ptrINS_5SSTIOEENS0_10SignalTypeEittjj@Base 2.0.0-1
 _ZN5geopm9levelzeroEv@Base 2.0.0-1
 _ZN5geopm9read_fileERKNSt7__cxx1112basic_stringIcSt11char_traitsIcESaIcEEE@Base 2.0.0-1
 _ZN5geopm9time_zeroEv@Base 2.0.0-1
 _ZN6google8protobuf5Arena18CreateMaybeMessageIN12GEOPMPackage10SessionKeyEJEEEPT_PS1_DpOT0_@Base 2.0.0-1
 _ZN6google8protobuf5Arena18CreateMaybeMessageIN12GEOPMPackage11AccessListsEJEEEPT_PS1_DpOT0_@Base 2.0.0-1
 _ZN6google8protobuf5Arena18CreateMaybeMessageIN12GEOPMPackage11InfoRequestEJEEEPT_PS1_DpOT0_@Base 2.0.0-1
 _ZN6google8protobuf5Arena18CreateMaybeMessageIN12GEOPMPackage11ReadRequestEJEEEPT_PS1_DpOT0_@Base 2.0.0-1
 _ZN6google8protobuf5Arena18CreateMaybeMessageIN12GEOPMPackage12BatchRequestEJEEEPT_PS1_DpOT0_@Base 2.0.0-1
 _ZN6google8protobuf5Arena18CreateMaybeMessageIN12GEOPMPackage12BatchSessionEJEEEPT_PS1_DpOT0_@Base 2.0.0-1
 _ZN6google8protobuf5Arena18CreateMaybeMessageIN12GEOPMPackage12WriteRequestEJEEEPT_PS1_DpOT0_@Base 2.0.0-1
 _ZN6google8protobuf5Arena18CreateMaybeMessageIN12GEOPMPackage14ProfileRequestEJEEEPT_PS1_DpOT0_@Base 2.0.0-1
 _ZN6google8protobuf5Arena18CreateMaybeMessageIN12GEOPMPackage14SignalInfoListEJEEEPT_PS1_DpOT0_@Base 2.0.0-1
 _ZN6google8protobuf5Arena18CreateMaybeMessageIN12GEOPMPackage15ControlInfoListEJEEEPT_PS1_DpOT0_@Base 2.0.0-1
 _ZN6google8protobuf5Arena18CreateMaybeMessageIN12GEOPMPackage15PlatformRequestEJEEEPT_PS1_DpOT0_@Base 2.0.0-1
 _ZN6google8protobuf5Arena18CreateMaybeMessageIN12GEOPMPackage25SignalInfoList_SignalInfoEJEEEPT_PS1_DpOT0_@Base 2.0.0-1
 _ZN6google8protobuf5Arena18CreateMaybeMessageIN12GEOPMPackage27ControlInfoList_ControlInfoEJEEEPT_PS1_DpOT0_@Base 2.0.0-1
 _ZN6google8protobuf5Arena18CreateMaybeMessageIN12GEOPMPackage5EmptyEJEEEPT_PS1_DpOT0_@Base 2.0.0-1
 _ZN6google8protobuf5Arena18CreateMaybeMessageIN12GEOPMPackage6SampleEJEEEPT_PS1_DpOT0_@Base 2.0.0-1
 _ZN6google8protobuf5Arena18CreateMaybeMessageIN12GEOPMPackage7PidListEJEEEPT_PS1_DpOT0_@Base 2.0.0-1
 _ZN6google8protobuf5Arena18CreateMaybeMessageIN12GEOPMPackage8BatchKeyEJEEEPT_PS1_DpOT0_@Base 2.0.0-1
 _ZN6google8protobuf5Arena18CreateMaybeMessageIN12GEOPMPackage8NameListEJEEEPT_PS1_DpOT0_@Base 2.0.0-1
 _ZN6google8protobuf5Arena18CreateMaybeMessageIN12GEOPMPackage9TopoCacheEJEEEPT_PS1_DpOT0_@Base 2.0.0-1
 _ZN6google8protobuf8internal20RepeatedPtrFieldBase18MergeFromInnerLoopINS0_16RepeatedPtrFieldIN12GEOPMPackage15PlatformRequestEE11TypeHandlerEEEvPPvSA_ii@Base 2.0.0-1
 _ZN6google8protobuf8internal20RepeatedPtrFieldBase18MergeFromInnerLoopINS0_16RepeatedPtrFieldIN12GEOPMPackage25SignalInfoList_SignalInfoEE11TypeHandlerEEEvPPvSA_ii@Base 2.0.0-1
 _ZN6google8protobuf8internal20RepeatedPtrFieldBase18MergeFromInnerLoopINS0_16RepeatedPtrFieldIN12GEOPMPackage27ControlInfoList_ControlInfoEE11TypeHandlerEEEvPPvSA_ii@Base 2.0.0-1
 _ZN6google8protobuf8internal21arena_destruct_objectINS1_16InternalMetadata9ContainerINS0_15UnknownFieldSetEEEEEvPv@Base 2.0.0-1
 _ZN6google8protobuf8internal21arena_destruct_objectINSt7__cxx1112basic_stringIcSt11char_traitsIcESaIcEEEEEvPv@Base 2.0.0-1
 _ZN6json114Json11parse_multiERKNSt7__cxx1112basic_stringIcSt11char_traitsIcESaIcEEERmRS6_NS_9JsonParseE@Base 2.0.0-1
 _ZN6json114Json5parseERKNSt7__cxx1112basic_stringIcSt11char_traitsIcESaIcEEERS6_NS_9JsonParseE@Base 2.0.0-1
 _ZN6json114JsonC1EDn@Base 2.0.0-1
 _ZN6json114JsonC1EONSt7__cxx1112basic_stringIcSt11char_traitsIcESaIcEEE@Base 2.0.0-1
 _ZN6json114JsonC1EOSt3mapINSt7__cxx1112basic_stringIcSt11char_traitsIcESaIcEEES0_St4lessIS7_ESaISt4pairIKS7_S0_EEE@Base 2.0.0-1
 _ZN6json114JsonC1EOSt6vectorIS0_SaIS0_EE@Base 2.0.0-1
 _ZN6json114JsonC1EPKc@Base 2.0.0-1
 _ZN6json114JsonC1ERKNSt7__cxx1112basic_stringIcSt11char_traitsIcESaIcEEE@Base 2.0.0-1
 _ZN6json114JsonC1ERKSt3mapINSt7__cxx1112basic_stringIcSt11char_traitsIcESaIcEEES0_St4lessIS7_ESaISt4pairIKS7_S0_EEE@Base 2.0.0-1
 _ZN6json114JsonC1ERKSt6vectorIS0_SaIS0_EE@Base 2.0.0-1
 _ZN6json114JsonC1Eb@Base 2.0.0-1
 _ZN6json114JsonC1Ed@Base 2.0.0-1
 _ZN6json114JsonC1Ei@Base 2.0.0-1
 _ZN6json114JsonC1Ev@Base 2.0.0-1
 _ZN6json114JsonC2EDn@Base 2.0.0-1
 _ZN6json114JsonC2EONSt7__cxx1112basic_stringIcSt11char_traitsIcESaIcEEE@Base 2.0.0-1
 _ZN6json114JsonC2EOSt3mapINSt7__cxx1112basic_stringIcSt11char_traitsIcESaIcEEES0_St4lessIS7_ESaISt4pairIKS7_S0_EEE@Base 2.0.0-1
 _ZN6json114JsonC2EOSt6vectorIS0_SaIS0_EE@Base 2.0.0-1
 _ZN6json114JsonC2EPKc@Base 2.0.0-1
 _ZN6json114JsonC2ERKNSt7__cxx1112basic_stringIcSt11char_traitsIcESaIcEEE@Base 2.0.0-1
 _ZN6json114JsonC2ERKSt3mapINSt7__cxx1112basic_stringIcSt11char_traitsIcESaIcEEES0_St4lessIS7_ESaISt4pairIKS7_S0_EEE@Base 2.0.0-1
 _ZN6json114JsonC2ERKSt6vectorIS0_SaIS0_EE@Base 2.0.0-1
 _ZN6json114JsonC2Eb@Base 2.0.0-1
 _ZN6json114JsonC2Ed@Base 2.0.0-1
 _ZN6json114JsonC2Ei@Base 2.0.0-1
 _ZN6json114JsonC2Ev@Base 2.0.0-1
 _ZNK12GEOPMPackage10SessionKey11GetMetadataEv@Base 2.0.0-1
 _ZNK12GEOPMPackage10SessionKey12ByteSizeLongEv@Base 2.0.0-1
 _ZNK12GEOPMPackage10SessionKey13IsInitializedEv@Base 2.0.0-1
 _ZNK12GEOPMPackage10SessionKey13SetCachedSizeEi@Base 2.0.0-1
 _ZNK12GEOPMPackage10SessionKey18_InternalSerializeEPhPN6google8protobuf2io19EpsCopyOutputStreamE@Base 2.0.0-1
 _ZNK12GEOPMPackage11AccessLists11GetMetadataEv@Base 2.0.0-1
 _ZNK12GEOPMPackage11AccessLists12ByteSizeLongEv@Base 2.0.0-1
 _ZNK12GEOPMPackage11AccessLists13IsInitializedEv@Base 2.0.0-1
 _ZNK12GEOPMPackage11AccessLists13SetCachedSizeEi@Base 2.0.0-1
 _ZNK12GEOPMPackage11AccessLists18_InternalSerializeEPhPN6google8protobuf2io19EpsCopyOutputStreamE@Base 2.0.0-1
 _ZNK12GEOPMPackage11InfoRequest11GetMetadataEv@Base 2.0.0-1
 _ZNK12GEOPMPackage11InfoRequest12ByteSizeLongEv@Base 2.0.0-1
 _ZNK12GEOPMPackage11InfoRequest13IsInitializedEv@Base 2.0.0-1
 _ZNK12GEOPMPackage11InfoRequest13SetCachedSizeEi@Base 2.0.0-1
 _ZNK12GEOPMPackage11InfoRequest18_InternalSerializeEPhPN6google8protobuf2io19EpsCopyOutputStreamE@Base 2.0.0-1
 _ZNK12GEOPMPackage11ReadRequest11GetMetadataEv@Base 2.0.0-1
 _ZNK12GEOPMPackage11ReadRequest12ByteSizeLongEv@Base 2.0.0-1
 _ZNK12GEOPMPackage11ReadRequest13IsInitializedEv@Base 2.0.0-1
 _ZNK12GEOPMPackage11ReadRequest13SetCachedSizeEi@Base 2.0.0-1
 _ZNK12GEOPMPackage11ReadRequest18_InternalSerializeEPhPN6google8protobuf2io19EpsCopyOutputStreamE@Base 2.0.0-1
 _ZNK12GEOPMPackage12BatchRequest11GetMetadataEv@Base 2.0.0-1
 _ZNK12GEOPMPackage12BatchRequest12ByteSizeLongEv@Base 2.0.0-1
 _ZNK12GEOPMPackage12BatchRequest13IsInitializedEv@Base 2.0.0-1
 _ZNK12GEOPMPackage12BatchRequest13SetCachedSizeEi@Base 2.0.0-1
 _ZNK12GEOPMPackage12BatchRequest18_InternalSerializeEPhPN6google8protobuf2io19EpsCopyOutputStreamE@Base 2.0.0-1
 _ZNK12GEOPMPackage12BatchSession11GetMetadataEv@Base 2.0.0-1
 _ZNK12GEOPMPackage12BatchSession12ByteSizeLongEv@Base 2.0.0-1
 _ZNK12GEOPMPackage12BatchSession13IsInitializedEv@Base 2.0.0-1
 _ZNK12GEOPMPackage12BatchSession13SetCachedSizeEi@Base 2.0.0-1
 _ZNK12GEOPMPackage12BatchSession18_InternalSerializeEPhPN6google8protobuf2io19EpsCopyOutputStreamE@Base 2.0.0-1
 _ZNK12GEOPMPackage12WriteRequest11GetMetadataEv@Base 2.0.0-1
 _ZNK12GEOPMPackage12WriteRequest12ByteSizeLongEv@Base 2.0.0-1
 _ZNK12GEOPMPackage12WriteRequest13IsInitializedEv@Base 2.0.0-1
 _ZNK12GEOPMPackage12WriteRequest13SetCachedSizeEi@Base 2.0.0-1
 _ZNK12GEOPMPackage12WriteRequest18_InternalSerializeEPhPN6google8protobuf2io19EpsCopyOutputStreamE@Base 2.0.0-1
 _ZNK12GEOPMPackage14ProfileRequest11GetMetadataEv@Base 2.0.0-1
 _ZNK12GEOPMPackage14ProfileRequest12ByteSizeLongEv@Base 2.0.0-1
 _ZNK12GEOPMPackage14ProfileRequest13IsInitializedEv@Base 2.0.0-1
 _ZNK12GEOPMPackage14ProfileRequest13SetCachedSizeEi@Base 2.0.0-1
 _ZNK12GEOPMPackage14ProfileRequest18_InternalSerializeEPhPN6google8protobuf2io19EpsCopyOutputStreamE@Base 2.0.0-1
 _ZNK12GEOPMPackage14SignalInfoList11GetMetadataEv@Base 2.0.0-1
 _ZNK12GEOPMPackage14SignalInfoList12ByteSizeLongEv@Base 2.0.0-1
 _ZNK12GEOPMPackage14SignalInfoList13IsInitializedEv@Base 2.0.0-1
 _ZNK12GEOPMPackage14SignalInfoList13SetCachedSizeEi@Base 2.0.0-1
 _ZNK12GEOPMPackage14SignalInfoList18_InternalSerializeEPhPN6google8protobuf2io19EpsCopyOutputStreamE@Base 2.0.0-1
 _ZNK12GEOPMPackage15ControlInfoList11GetMetadataEv@Base 2.0.0-1
 _ZNK12GEOPMPackage15ControlInfoList12ByteSizeLongEv@Base 2.0.0-1
 _ZNK12GEOPMPackage15ControlInfoList13IsInitializedEv@Base 2.0.0-1
 _ZNK12GEOPMPackage15ControlInfoList13SetCachedSizeEi@Base 2.0.0-1
 _ZNK12GEOPMPackage15ControlInfoList18_InternalSerializeEPhPN6google8protobuf2io19EpsCopyOutputStreamE@Base 2.0.0-1
 _ZNK12GEOPMPackage15PlatformRequest11GetMetadataEv@Base 2.0.0-1
 _ZNK12GEOPMPackage15PlatformRequest12ByteSizeLongEv@Base 2.0.0-1
 _ZNK12GEOPMPackage15PlatformRequest13IsInitializedEv@Base 2.0.0-1
 _ZNK12GEOPMPackage15PlatformRequest13SetCachedSizeEi@Base 2.0.0-1
 _ZNK12GEOPMPackage15PlatformRequest18_InternalSerializeEPhPN6google8protobuf2io19EpsCopyOutputStreamE@Base 2.0.0-1
 _ZNK12GEOPMPackage25SignalInfoList_SignalInfo11GetMetadataEv@Base 2.0.0-1
 _ZNK12GEOPMPackage25SignalInfoList_SignalInfo12ByteSizeLongEv@Base 2.0.0-1
 _ZNK12GEOPMPackage25SignalInfoList_SignalInfo13IsInitializedEv@Base 2.0.0-1
 _ZNK12GEOPMPackage25SignalInfoList_SignalInfo13SetCachedSizeEi@Base 2.0.0-1
 _ZNK12GEOPMPackage25SignalInfoList_SignalInfo18_InternalSerializeEPhPN6google8protobuf2io19EpsCopyOutputStreamE@Base 2.0.0-1
 _ZNK12GEOPMPackage27ControlInfoList_ControlInfo11GetMetadataEv@Base 2.0.0-1
 _ZNK12GEOPMPackage27ControlInfoList_ControlInfo12ByteSizeLongEv@Base 2.0.0-1
 _ZNK12GEOPMPackage27ControlInfoList_ControlInfo13IsInitializedEv@Base 2.0.0-1
 _ZNK12GEOPMPackage27ControlInfoList_ControlInfo13SetCachedSizeEi@Base 2.0.0-1
 _ZNK12GEOPMPackage27ControlInfoList_ControlInfo18_InternalSerializeEPhPN6google8protobuf2io19EpsCopyOutputStreamE@Base 2.0.0-1
 _ZNK12GEOPMPackage5Empty11GetMetadataEv@Base 2.0.0-1
 _ZNK12GEOPMPackage5Empty12ByteSizeLongEv@Base 2.0.0-1
 _ZNK12GEOPMPackage5Empty13IsInitializedEv@Base 2.0.0-1
 _ZNK12GEOPMPackage5Empty13SetCachedSizeEi@Base 2.0.0-1
 _ZNK12GEOPMPackage5Empty18_InternalSerializeEPhPN6google8protobuf2io19EpsCopyOutputStreamE@Base 2.0.0-1
 _ZNK12GEOPMPackage6Sample11GetMetadataEv@Base 2.0.0-1
 _ZNK12GEOPMPackage6Sample12ByteSizeLongEv@Base 2.0.0-1
 _ZNK12GEOPMPackage6Sample13IsInitializedEv@Base 2.0.0-1
 _ZNK12GEOPMPackage6Sample13SetCachedSizeEi@Base 2.0.0-1
 _ZNK12GEOPMPackage6Sample18_InternalSerializeEPhPN6google8protobuf2io19EpsCopyOutputStreamE@Base 2.0.0-1
 _ZNK12GEOPMPackage7PidList11GetMetadataEv@Base 2.0.0-1
 _ZNK12GEOPMPackage7PidList12ByteSizeLongEv@Base 2.0.0-1
 _ZNK12GEOPMPackage7PidList13IsInitializedEv@Base 2.0.0-1
 _ZNK12GEOPMPackage7PidList13SetCachedSizeEi@Base 2.0.0-1
 _ZNK12GEOPMPackage7PidList18_InternalSerializeEPhPN6google8protobuf2io19EpsCopyOutputStreamE@Base 2.0.0-1
 _ZNK12GEOPMPackage8BatchKey11GetMetadataEv@Base 2.0.0-1
 _ZNK12GEOPMPackage8BatchKey12ByteSizeLongEv@Base 2.0.0-1
 _ZNK12GEOPMPackage8BatchKey13IsInitializedEv@Base 2.0.0-1
 _ZNK12GEOPMPackage8BatchKey13SetCachedSizeEi@Base 2.0.0-1
 _ZNK12GEOPMPackage8BatchKey18_InternalSerializeEPhPN6google8protobuf2io19EpsCopyOutputStreamE@Base 2.0.0-1
 _ZNK12GEOPMPackage8NameList11GetMetadataEv@Base 2.0.0-1
 _ZNK12GEOPMPackage8NameList12ByteSizeLongEv@Base 2.0.0-1
 _ZNK12GEOPMPackage8NameList13IsInitializedEv@Base 2.0.0-1
 _ZNK12GEOPMPackage8NameList13SetCachedSizeEi@Base 2.0.0-1
 _ZNK12GEOPMPackage8NameList18_InternalSerializeEPhPN6google8protobuf2io19EpsCopyOutputStreamE@Base 2.0.0-1
 _ZNK12GEOPMPackage9TopoCache11GetMetadataEv@Base 2.0.0-1
 _ZNK12GEOPMPackage9TopoCache12ByteSizeLongEv@Base 2.0.0-1
 _ZNK12GEOPMPackage9TopoCache13IsInitializedEv@Base 2.0.0-1
 _ZNK12GEOPMPackage9TopoCache13SetCachedSizeEi@Base 2.0.0-1
 _ZNK12GEOPMPackage9TopoCache18_InternalSerializeEPhPN6google8protobuf2io19EpsCopyOutputStreamE@Base 2.0.0-1
 _ZNK5geopm10CNLIOGroup12agg_functionERKNSt7__cxx1112basic_stringIcSt11char_traitsIcESaIcEEE@Base 2.0.0-1
 _ZNK5geopm10CNLIOGroup12signal_namesB5cxx11Ev@Base 2.0.0-1
 _ZNK5geopm10CNLIOGroup13control_namesB5cxx11Ev@Base 2.0.0-1
 _ZNK5geopm10CNLIOGroup15format_functionERKNSt7__cxx1112basic_stringIcSt11char_traitsIcESaIcEEE@Base 2.0.0-1
 _ZNK5geopm10CNLIOGroup15is_valid_signalERKNSt7__cxx1112basic_stringIcSt11char_traitsIcESaIcEEE@Base 2.0.0-1
 _ZNK5geopm10CNLIOGroup15signal_behaviorERKNSt7__cxx1112basic_stringIcSt11char_traitsIcESaIcEEE@Base 2.0.0-1
 _ZNK5geopm10CNLIOGroup16is_valid_controlERKNSt7__cxx1112basic_stringIcSt11char_traitsIcESaIcEEE@Base 2.0.0-1
 _ZNK5geopm10CNLIOGroup18signal_descriptionERKNSt7__cxx1112basic_stringIcSt11char_traitsIcESaIcEEE@Base 2.0.0-1
 _ZNK5geopm10CNLIOGroup18signal_domain_typeERKNSt7__cxx1112basic_stringIcSt11char_traitsIcESaIcEEE@Base 2.0.0-1
 _ZNK5geopm10CNLIOGroup19control_descriptionERKNSt7__cxx1112basic_stringIcSt11char_traitsIcESaIcEEE@Base 2.0.0-1
 _ZNK5geopm10CNLIOGroup19control_domain_typeERKNSt7__cxx1112basic_stringIcSt11char_traitsIcESaIcEEE@Base 2.0.0-1
 _ZNK5geopm10CNLIOGroup4nameB5cxx11Ev@Base 2.0.0-1
 _ZNK5geopm10CNLIOGroup9read_timeERKNSt7__cxx1112basic_stringIcSt11char_traitsIcESaIcEEE@Base 2.0.0-1
 _ZNK5geopm10MSRIOGroup12agg_functionERKNSt7__cxx1112basic_stringIcSt11char_traitsIcESaIcEEE@Base 2.0.0-1
 _ZNK5geopm10MSRIOGroup12signal_namesB5cxx11Ev@Base 2.0.0-1
 _ZNK5geopm10MSRIOGroup13control_namesB5cxx11Ev@Base 2.0.0-1
 _ZNK5geopm10MSRIOGroup15format_functionERKNSt7__cxx1112basic_stringIcSt11char_traitsIcESaIcEEE@Base 2.0.0-1
 _ZNK5geopm10MSRIOGroup15is_valid_signalERKNSt7__cxx1112basic_stringIcSt11char_traitsIcESaIcEEE@Base 2.0.0-1
 _ZNK5geopm10MSRIOGroup15signal_behaviorERKNSt7__cxx1112basic_stringIcSt11char_traitsIcESaIcEEE@Base 2.0.0-1
 _ZNK5geopm10MSRIOGroup16is_valid_controlERKNSt7__cxx1112basic_stringIcSt11char_traitsIcESaIcEEE@Base 2.0.0-1
 _ZNK5geopm10MSRIOGroup18signal_descriptionERKNSt7__cxx1112basic_stringIcSt11char_traitsIcESaIcEEE@Base 2.0.0-1
 _ZNK5geopm10MSRIOGroup18signal_domain_typeERKNSt7__cxx1112basic_stringIcSt11char_traitsIcESaIcEEE@Base 2.0.0-1
 _ZNK5geopm10MSRIOGroup19control_descriptionERKNSt7__cxx1112basic_stringIcSt11char_traitsIcESaIcEEE@Base 2.0.0-1
 _ZNK5geopm10MSRIOGroup19control_domain_typeERKNSt7__cxx1112basic_stringIcSt11char_traitsIcESaIcEEE@Base 2.0.0-1
 _ZNK5geopm10MSRIOGroup4nameB5cxx11Ev@Base 2.0.0-1
 _ZNK5geopm10SSTIOGroup12agg_functionERKNSt7__cxx1112basic_stringIcSt11char_traitsIcESaIcEEE@Base 2.0.0-1
 _ZNK5geopm10SSTIOGroup12signal_namesB5cxx11Ev@Base 2.0.0-1
 _ZNK5geopm10SSTIOGroup13control_namesB5cxx11Ev@Base 2.0.0-1
 _ZNK5geopm10SSTIOGroup15format_functionERKNSt7__cxx1112basic_stringIcSt11char_traitsIcESaIcEEE@Base 2.0.0-1
 _ZNK5geopm10SSTIOGroup15is_valid_signalERKNSt7__cxx1112basic_stringIcSt11char_traitsIcESaIcEEE@Base 2.0.0-1
 _ZNK5geopm10SSTIOGroup15signal_behaviorERKNSt7__cxx1112basic_stringIcSt11char_traitsIcESaIcEEE@Base 2.0.0-1
 _ZNK5geopm10SSTIOGroup16is_valid_controlERKNSt7__cxx1112basic_stringIcSt11char_traitsIcESaIcEEE@Base 2.0.0-1
 _ZNK5geopm10SSTIOGroup18signal_descriptionERKNSt7__cxx1112basic_stringIcSt11char_traitsIcESaIcEEE@Base 2.0.0-1
 _ZNK5geopm10SSTIOGroup18signal_domain_typeERKNSt7__cxx1112basic_stringIcSt11char_traitsIcESaIcEEE@Base 2.0.0-1
 _ZNK5geopm10SSTIOGroup19control_descriptionERKNSt7__cxx1112basic_stringIcSt11char_traitsIcESaIcEEE@Base 2.0.0-1
 _ZNK5geopm10SSTIOGroup19control_domain_typeERKNSt7__cxx1112basic_stringIcSt11char_traitsIcESaIcEEE@Base 2.0.0-1
 _ZNK5geopm10SSTIOGroup4nameB5cxx11Ev@Base 2.0.0-1
 _ZNK5geopm10TimeSignal4readEv@Base 2.0.0-1
 _ZNK5geopm11DCGMIOGroup12agg_functionERKNSt7__cxx1112basic_stringIcSt11char_traitsIcESaIcEEE@Base 2.0.0-1
 _ZNK5geopm11DCGMIOGroup12signal_namesB5cxx11Ev@Base 2.0.0-1
 _ZNK5geopm11DCGMIOGroup13control_namesB5cxx11Ev@Base 2.0.0-1
 _ZNK5geopm11DCGMIOGroup15format_functionERKNSt7__cxx1112basic_stringIcSt11char_traitsIcESaIcEEE@Base 2.0.0-1
 _ZNK5geopm11DCGMIOGroup15is_valid_signalERKNSt7__cxx1112basic_stringIcSt11char_traitsIcESaIcEEE@Base 2.0.0-1
 _ZNK5geopm11DCGMIOGroup15signal_behaviorERKNSt7__cxx1112basic_stringIcSt11char_traitsIcESaIcEEE@Base 2.0.0-1
 _ZNK5geopm11DCGMIOGroup16is_valid_controlERKNSt7__cxx1112basic_stringIcSt11char_traitsIcESaIcEEE@Base 2.0.0-1
 _ZNK5geopm11DCGMIOGroup18signal_descriptionERKNSt7__cxx1112basic_stringIcSt11char_traitsIcESaIcEEE@Base 2.0.0-1
 _ZNK5geopm11DCGMIOGroup18signal_domain_typeERKNSt7__cxx1112basic_stringIcSt11char_traitsIcESaIcEEE@Base 2.0.0-1
 _ZNK5geopm11DCGMIOGroup19control_descriptionERKNSt7__cxx1112basic_stringIcSt11char_traitsIcESaIcEEE@Base 2.0.0-1
 _ZNK5geopm11DCGMIOGroup19control_domain_typeERKNSt7__cxx1112basic_stringIcSt11char_traitsIcESaIcEEE@Base 2.0.0-1
 _ZNK5geopm11DCGMIOGroup4nameB5cxx11Ev@Base 2.0.0-1
 _ZNK5geopm11GPUTopoNull18cpu_affinity_idealEi@Base 2.0.0-1
 _ZNK5geopm11GPUTopoNull18cpu_affinity_idealEii@Base 2.0.0-1
 _ZNK5geopm11GPUTopoNull7num_gpuEi@Base 2.0.0-1
 _ZNK5geopm11GPUTopoNull7num_gpuEv@Base 2.0.0-1
 _ZNK5geopm11NVMLGPUTopo18cpu_affinity_idealEi@Base 2.0.0-1
 _ZNK5geopm11NVMLGPUTopo18cpu_affinity_idealEii@Base 2.0.0-1
 _ZNK5geopm11NVMLGPUTopo7num_gpuEi@Base 2.0.0-1
 _ZNK5geopm11NVMLGPUTopo7num_gpuEv@Base 2.0.0-1
 _ZNK5geopm11NVMLIOGroup12agg_functionERKNSt7__cxx1112basic_stringIcSt11char_traitsIcESaIcEEE@Base 2.0.0-1
 _ZNK5geopm11NVMLIOGroup12signal_namesB5cxx11Ev@Base 2.0.0-1
 _ZNK5geopm11NVMLIOGroup13control_namesB5cxx11Ev@Base 2.0.0-1
 _ZNK5geopm11NVMLIOGroup15format_functionERKNSt7__cxx1112basic_stringIcSt11char_traitsIcESaIcEEE@Base 2.0.0-1
 _ZNK5geopm11NVMLIOGroup15gpu_process_mapEv@Base 2.0.0-1
 _ZNK5geopm11NVMLIOGroup15is_valid_signalERKNSt7__cxx1112basic_stringIcSt11char_traitsIcESaIcEEE@Base 2.0.0-1
 _ZNK5geopm11NVMLIOGroup15signal_behaviorERKNSt7__cxx1112basic_stringIcSt11char_traitsIcESaIcEEE@Base 2.0.0-1
 _ZNK5geopm11NVMLIOGroup16cpu_gpu_affinityEiSt3mapIidSt4lessIiESaISt4pairIKidEEE@Base 2.0.0-1
 _ZNK5geopm11NVMLIOGroup16is_valid_controlERKNSt7__cxx1112basic_stringIcSt11char_traitsIcESaIcEEE@Base 2.0.0-1
 _ZNK5geopm11NVMLIOGroup18signal_descriptionERKNSt7__cxx1112basic_stringIcSt11char_traitsIcESaIcEEE@Base 2.0.0-1
 _ZNK5geopm11NVMLIOGroup18signal_domain_typeERKNSt7__cxx1112basic_stringIcSt11char_traitsIcESaIcEEE@Base 2.0.0-1
 _ZNK5geopm11NVMLIOGroup19control_descriptionERKNSt7__cxx1112basic_stringIcSt11char_traitsIcESaIcEEE@Base 2.0.0-1
 _ZNK5geopm11NVMLIOGroup19control_domain_typeERKNSt7__cxx1112basic_stringIcSt11char_traitsIcESaIcEEE@Base 2.0.0-1
 _ZNK5geopm11NVMLIOGroup4nameB5cxx11Ev@Base 2.0.0-1
 _ZNK5geopm11RatioSignal4readEv@Base 2.0.0-1
 _ZNK5geopm11TimeIOGroup12agg_functionERKNSt7__cxx1112basic_stringIcSt11char_traitsIcESaIcEEE@Base 2.0.0-1
 _ZNK5geopm11TimeIOGroup12signal_namesB5cxx11Ev@Base 2.0.0-1
 _ZNK5geopm11TimeIOGroup13control_namesB5cxx11Ev@Base 2.0.0-1
 _ZNK5geopm11TimeIOGroup15format_functionERKNSt7__cxx1112basic_stringIcSt11char_traitsIcESaIcEEE@Base 2.0.0-1
 _ZNK5geopm11TimeIOGroup15is_valid_signalERKNSt7__cxx1112basic_stringIcSt11char_traitsIcESaIcEEE@Base 2.0.0-1
 _ZNK5geopm11TimeIOGroup15signal_behaviorERKNSt7__cxx1112basic_stringIcSt11char_traitsIcESaIcEEE@Base 2.0.0-1
 _ZNK5geopm11TimeIOGroup16is_valid_controlERKNSt7__cxx1112basic_stringIcSt11char_traitsIcESaIcEEE@Base 2.0.0-1
 _ZNK5geopm11TimeIOGroup18signal_descriptionERKNSt7__cxx1112basic_stringIcSt11char_traitsIcESaIcEEE@Base 2.0.0-1
 _ZNK5geopm11TimeIOGroup18signal_domain_typeERKNSt7__cxx1112basic_stringIcSt11char_traitsIcESaIcEEE@Base 2.0.0-1
 _ZNK5geopm11TimeIOGroup19control_descriptionERKNSt7__cxx1112basic_stringIcSt11char_traitsIcESaIcEEE@Base 2.0.0-1
 _ZNK5geopm11TimeIOGroup19control_domain_typeERKNSt7__cxx1112basic_stringIcSt11char_traitsIcESaIcEEE@Base 2.0.0-1
 _ZNK5geopm11TimeIOGroup4nameB5cxx11Ev@Base 2.0.0-1
 _ZNK5geopm12RawMSRSignal4readEv@Base 2.0.0-1
 _ZNK5geopm13PlatformIOImp12agg_functionERKNSt7__cxx1112basic_stringIcSt11char_traitsIcESaIcEEE@Base 2.0.0-1
 _ZNK5geopm13PlatformIOImp12signal_namesB5cxx11Ev@Base 2.0.0-1
 _ZNK5geopm13PlatformIOImp13control_namesB5cxx11Ev@Base 2.0.0-1
 _ZNK5geopm13PlatformIOImp15format_functionERKNSt7__cxx1112basic_stringIcSt11char_traitsIcESaIcEEE@Base 2.0.0-1
 _ZNK5geopm13PlatformIOImp15signal_behaviorERKNSt7__cxx1112basic_stringIcSt11char_traitsIcESaIcEEE@Base 2.0.0-1
 _ZNK5geopm13PlatformIOImp17num_signal_pushedEv@Base 2.0.0-1
 _ZNK5geopm13PlatformIOImp18num_control_pushedEv@Base 2.0.0-1
 _ZNK5geopm13PlatformIOImp18signal_descriptionERKNSt7__cxx1112basic_stringIcSt11char_traitsIcESaIcEEE@Base 2.0.0-1
 _ZNK5geopm13PlatformIOImp18signal_domain_typeERKNSt7__cxx1112basic_stringIcSt11char_traitsIcESaIcEEE@Base 2.0.0-1
 _ZNK5geopm13PlatformIOImp19control_descriptionERKNSt7__cxx1112basic_stringIcSt11char_traitsIcESaIcEEE@Base 2.0.0-1
 _ZNK5geopm13PlatformIOImp19control_domain_typeERKNSt7__cxx1112basic_stringIcSt11char_traitsIcESaIcEEE@Base 2.0.0-1
 _ZNK5geopm13PlatformIOImp19find_signal_iogroupERKNSt7__cxx1112basic_stringIcSt11char_traitsIcESaIcEEE@Base 2.0.0-1
 _ZNK5geopm13PlatformIOImp20find_control_iogroupERKNSt7__cxx1112basic_stringIcSt11char_traitsIcESaIcEEE@Base 2.0.0-1
 _ZNK5geopm13PlatformIOImp22is_control_adjust_sameERKNSt7__cxx1112basic_stringIcSt11char_traitsIcESaIcEEE@Base 2.0.0-1
 _ZNK5geopm14BatchServerImp10server_keyB5cxx11Ev@Base 2.0.0-1
 _ZNK5geopm14BatchServerImp10server_pidEv@Base 2.0.0-1
 _ZNK5geopm14BatchServerImp12check_returnEiRKNSt7__cxx1112basic_stringIcSt11char_traitsIcESaIcEEE@Base 2.0.0-1
 _ZNK5geopm14CpuinfoIOGroup12agg_functionERKNSt7__cxx1112basic_stringIcSt11char_traitsIcESaIcEEE@Base 2.0.0-1
 _ZNK5geopm14CpuinfoIOGroup12signal_namesB5cxx11Ev@Base 2.0.0-1
 _ZNK5geopm14CpuinfoIOGroup13control_namesB5cxx11Ev@Base 2.0.0-1
 _ZNK5geopm14CpuinfoIOGroup15format_functionERKNSt7__cxx1112basic_stringIcSt11char_traitsIcESaIcEEE@Base 2.0.0-1
 _ZNK5geopm14CpuinfoIOGroup15is_valid_signalERKNSt7__cxx1112basic_stringIcSt11char_traitsIcESaIcEEE@Base 2.0.0-1
 _ZNK5geopm14CpuinfoIOGroup15signal_behaviorERKNSt7__cxx1112basic_stringIcSt11char_traitsIcESaIcEEE@Base 2.0.0-1
 _ZNK5geopm14CpuinfoIOGroup16is_valid_controlERKNSt7__cxx1112basic_stringIcSt11char_traitsIcESaIcEEE@Base 2.0.0-1
 _ZNK5geopm14CpuinfoIOGroup18signal_descriptionERKNSt7__cxx1112basic_stringIcSt11char_traitsIcESaIcEEE@Base 2.0.0-1
 _ZNK5geopm14CpuinfoIOGroup18signal_domain_typeERKNSt7__cxx1112basic_stringIcSt11char_traitsIcESaIcEEE@Base 2.0.0-1
 _ZNK5geopm14CpuinfoIOGroup19control_descriptionERKNSt7__cxx1112basic_stringIcSt11char_traitsIcESaIcEEE@Base 2.0.0-1
 _ZNK5geopm14CpuinfoIOGroup19control_domain_typeERKNSt7__cxx1112basic_stringIcSt11char_traitsIcESaIcEEE@Base 2.0.0-1
 _ZNK5geopm14CpuinfoIOGroup4nameB5cxx11Ev@Base 2.0.0-1
 _ZNK5geopm14MSRFieldSignal17convert_raw_valueEdRmRi@Base 2.0.0-1
 _ZNK5geopm14MSRFieldSignal4readEv@Base 2.0.0-1
 _ZNK5geopm14POSIXSignalImp10sig_actionEiPK9sigactionPS1_@Base 2.0.0-1
 _ZNK5geopm14POSIXSignalImp11make_sigsetERKSt3setIiSt4lessIiESaIiEE@Base 2.0.0-1
 _ZNK5geopm14POSIXSignalImp11reduce_infoERK9siginfo_t@Base 2.0.0-1
 _ZNK5geopm14POSIXSignalImp11sig_suspendEPK10__sigset_t@Base 2.0.0-1
 _ZNK5geopm14POSIXSignalImp12check_returnEiRKNSt7__cxx1112basic_stringIcSt11char_traitsIcESaIcEEE@Base 2.0.0-1
 _ZNK5geopm14POSIXSignalImp13sig_proc_maskEiPK10__sigset_tPS1_@Base 2.0.0-1
 _ZNK5geopm14POSIXSignalImp13sig_wait_infoEPK10__sigset_tP9siginfo_t@Base 2.0.0-1
 _ZNK5geopm14POSIXSignalImp14sig_timed_waitEPK10__sigset_tP9siginfo_tPK8timespec@Base 2.0.0-1
 _ZNK5geopm14POSIXSignalImp9sig_queueEiii@Base 2.0.0-1
 _ZNK5geopm14SaveControlImp10write_jsonERKNSt7__cxx1112basic_stringIcSt11char_traitsIcESaIcEEE@Base 2.0.0-1
 _ZNK5geopm14SaveControlImp4jsonB5cxx11Ev@Base 2.0.0-1
 _ZNK5geopm14SaveControlImp7restoreERNS_7IOGroupE@Base 2.0.0-1
 _ZNK5geopm14SaveControlImp8settingsEv@Base 2.0.0-1
 _ZNK5geopm14ServiceIOGroup12agg_functionERKNSt7__cxx1112basic_stringIcSt11char_traitsIcESaIcEEE@Base 2.0.0-1
 _ZNK5geopm14ServiceIOGroup12signal_namesB5cxx11Ev@Base 2.0.0-1
 _ZNK5geopm14ServiceIOGroup13control_namesB5cxx11Ev@Base 2.0.0-1
 _ZNK5geopm14ServiceIOGroup15format_functionERKNSt7__cxx1112basic_stringIcSt11char_traitsIcESaIcEEE@Base 2.0.0-1
 _ZNK5geopm14ServiceIOGroup15is_valid_signalERKNSt7__cxx1112basic_stringIcSt11char_traitsIcESaIcEEE@Base 2.0.0-1
 _ZNK5geopm14ServiceIOGroup15signal_behaviorERKNSt7__cxx1112basic_stringIcSt11char_traitsIcESaIcEEE@Base 2.0.0-1
 _ZNK5geopm14ServiceIOGroup16is_valid_controlERKNSt7__cxx1112basic_stringIcSt11char_traitsIcESaIcEEE@Base 2.0.0-1
 _ZNK5geopm14ServiceIOGroup18signal_descriptionERKNSt7__cxx1112basic_stringIcSt11char_traitsIcESaIcEEE@Base 2.0.0-1
 _ZNK5geopm14ServiceIOGroup18signal_domain_typeERKNSt7__cxx1112basic_stringIcSt11char_traitsIcESaIcEEE@Base 2.0.0-1
 _ZNK5geopm14ServiceIOGroup19control_descriptionERKNSt7__cxx1112basic_stringIcSt11char_traitsIcESaIcEEE@Base 2.0.0-1
 _ZNK5geopm14ServiceIOGroup19control_domain_typeERKNSt7__cxx1112basic_stringIcSt11char_traitsIcESaIcEEE@Base 2.0.0-1
 _ZNK5geopm14ServiceIOGroup4nameB5cxx11Ev@Base 2.0.0-1
 _ZNK5geopm15LevelZeroSignal4readEv@Base 2.0.0-1
 _ZNK5geopm15MSRFieldControl6encodeEd@Base 2.0.0-1
 _ZNK5geopm15PlatformTopoImp10domain_idxEii@Base 2.0.0-1
 _ZNK5geopm15PlatformTopoImp10num_domainEi@Base 2.0.0-1
 _ZNK5geopm15PlatformTopoImp11domain_cpusEii@Base 2.0.0-1
 _ZNK5geopm15PlatformTopoImp13domain_nestedEiii@Base 2.0.0-1
 _ZNK5geopm15PlatformTopoImp16is_nested_domainEii@Base 2.0.0-1
 _ZNK5geopm15SharedMemoryImp3keyB5cxx11Ev@Base 2.0.0-1
 _ZNK5geopm15SharedMemoryImp4sizeEv@Base 2.0.0-1
 _ZNK5geopm15SharedMemoryImp5chownEjj@Base 2.0.0-1
 _ZNK5geopm15SharedMemoryImp7pointerEv@Base 2.0.0-1
 _ZNK5geopm16DerivativeSignal4readEv@Base 2.0.0-1
 _ZNK5geopm16DifferenceSignal4readEv@Base 2.0.0-1
 _ZNK5geopm16LevelZeroGPUTopo18cpu_affinity_idealEi@Base 2.0.0-1
 _ZNK5geopm16LevelZeroGPUTopo18cpu_affinity_idealEii@Base 2.0.0-1
 _ZNK5geopm16LevelZeroGPUTopo7num_gpuEi@Base 2.0.0-1
 _ZNK5geopm16LevelZeroGPUTopo7num_gpuEv@Base 2.0.0-1
 _ZNK5geopm16LevelZeroIOGroup12agg_functionERKNSt7__cxx1112basic_stringIcSt11char_traitsIcESaIcEEE@Base 2.0.0-1
 _ZNK5geopm16LevelZeroIOGroup12signal_namesB5cxx11Ev@Base 2.0.0-1
 _ZNK5geopm16LevelZeroIOGroup13control_namesB5cxx11Ev@Base 2.0.0-1
 _ZNK5geopm16LevelZeroIOGroup15format_functionERKNSt7__cxx1112basic_stringIcSt11char_traitsIcESaIcEEE@Base 2.0.0-1
 _ZNK5geopm16LevelZeroIOGroup15is_valid_signalERKNSt7__cxx1112basic_stringIcSt11char_traitsIcESaIcEEE@Base 2.0.0-1
 _ZNK5geopm16LevelZeroIOGroup15signal_behaviorERKNSt7__cxx1112basic_stringIcSt11char_traitsIcESaIcEEE@Base 2.0.0-1
 _ZNK5geopm16LevelZeroIOGroup16is_valid_controlERKNSt7__cxx1112basic_stringIcSt11char_traitsIcESaIcEEE@Base 2.0.0-1
 _ZNK5geopm16LevelZeroIOGroup18signal_descriptionERKNSt7__cxx1112basic_stringIcSt11char_traitsIcESaIcEEE@Base 2.0.0-1
 _ZNK5geopm16LevelZeroIOGroup18signal_domain_typeERKNSt7__cxx1112basic_stringIcSt11char_traitsIcESaIcEEE@Base 2.0.0-1
 _ZNK5geopm16LevelZeroIOGroup19control_descriptionERKNSt7__cxx1112basic_stringIcSt11char_traitsIcESaIcEEE@Base 2.0.0-1
 _ZNK5geopm16LevelZeroIOGroup19control_domain_typeERKNSt7__cxx1112basic_stringIcSt11char_traitsIcESaIcEEE@Base 2.0.0-1
 _ZNK5geopm16LevelZeroIOGroup4nameB5cxx11Ev@Base 2.0.0-1
 _ZNK5geopm18ConstConfigIOGroup12agg_functionERKNSt7__cxx1112basic_stringIcSt11char_traitsIcESaIcEEE@Base 2.0.0-1
 _ZNK5geopm18ConstConfigIOGroup12signal_namesB5cxx11Ev@Base 2.0.0-1
 _ZNK5geopm18ConstConfigIOGroup13control_namesB5cxx11Ev@Base 2.0.0-1
 _ZNK5geopm18ConstConfigIOGroup15format_functionERKNSt7__cxx1112basic_stringIcSt11char_traitsIcESaIcEEE@Base 2.0.0-1
 _ZNK5geopm18ConstConfigIOGroup15is_valid_signalERKNSt7__cxx1112basic_stringIcSt11char_traitsIcESaIcEEE@Base 2.0.0-1
 _ZNK5geopm18ConstConfigIOGroup15signal_behaviorERKNSt7__cxx1112basic_stringIcSt11char_traitsIcESaIcEEE@Base 2.0.0-1
 _ZNK5geopm18ConstConfigIOGroup16is_valid_controlERKNSt7__cxx1112basic_stringIcSt11char_traitsIcESaIcEEE@Base 2.0.0-1
 _ZNK5geopm18ConstConfigIOGroup18signal_descriptionERKNSt7__cxx1112basic_stringIcSt11char_traitsIcESaIcEEE@Base 2.0.0-1
 _ZNK5geopm18ConstConfigIOGroup18signal_domain_typeERKNSt7__cxx1112basic_stringIcSt11char_traitsIcESaIcEEE@Base 2.0.0-1
 _ZNK5geopm18ConstConfigIOGroup19control_descriptionERKNSt7__cxx1112basic_stringIcSt11char_traitsIcESaIcEEE@Base 2.0.0-1
 _ZNK5geopm18ConstConfigIOGroup19control_domain_typeERKNSt7__cxx1112basic_stringIcSt11char_traitsIcESaIcEEE@Base 2.0.0-1
 _ZNK5geopm18ConstConfigIOGroup4nameB5cxx11Ev@Base 2.0.0-1
 _ZNK5geopm20MultiplicationSignal4readEv@Base 2.0.0-1
 _ZNK5geopm22LevelZeroDevicePoolImp11active_timeEiji@Base 2.0.0-1
 _ZNK5geopm22LevelZeroDevicePoolImp11energy_pairEiji@Base 2.0.0-1
 _ZNK5geopm22LevelZeroDevicePoolImp13frequency_maxEiji@Base 2.0.0-1
 _ZNK5geopm22LevelZeroDevicePoolImp13frequency_minEiji@Base 2.0.0-1
 _ZNK5geopm22LevelZeroDevicePoolImp14frequency_stepEiji@Base 2.0.0-1
 _ZNK5geopm22LevelZeroDevicePoolImp15check_idx_rangeEij@Base 2.0.0-1
 _ZNK5geopm22LevelZeroDevicePoolImp15frequency_rangeEiji@Base 2.0.0-1
 _ZNK5geopm22LevelZeroDevicePoolImp15power_limit_maxEiji@Base 2.0.0-1
 _ZNK5geopm22LevelZeroDevicePoolImp15power_limit_minEiji@Base 2.0.0-1
 _ZNK5geopm22LevelZeroDevicePoolImp15power_limit_tdpEiji@Base 2.0.0-1
 _ZNK5geopm22LevelZeroDevicePoolImp15temperature_maxEiji@Base 2.0.0-1
 _ZNK5geopm22LevelZeroDevicePoolImp16active_time_pairEiji@Base 2.0.0-1
 _ZNK5geopm22LevelZeroDevicePoolImp16energy_timestampEiji@Base 2.0.0-1
 _ZNK5geopm22LevelZeroDevicePoolImp16frequency_statusEiji@Base 2.0.0-1
 _ZNK5geopm22LevelZeroDevicePoolImp17frequency_controlEijidd@Base 2.0.0-1
 _ZNK5geopm22LevelZeroDevicePoolImp18performance_factorEiji@Base 2.0.0-1
 _ZNK5geopm22LevelZeroDevicePoolImp19check_domain_existsEiPKci@Base 2.0.0-1
 _ZNK5geopm22LevelZeroDevicePoolImp19frequency_efficientEiji@Base 2.0.0-1
 _ZNK5geopm22LevelZeroDevicePoolImp21active_time_timestampEiji@Base 2.0.0-1
 _ZNK5geopm22LevelZeroDevicePoolImp26frequency_throttle_reasonsEiji@Base 2.0.0-1
 _ZNK5geopm22LevelZeroDevicePoolImp26performance_factor_controlEijid@Base 2.0.0-1
 _ZNK5geopm22LevelZeroDevicePoolImp27subdevice_device_conversionEj@Base 2.0.0-1
 _ZNK5geopm22LevelZeroDevicePoolImp6energyEiji@Base 2.0.0-1
 _ZNK5geopm22LevelZeroDevicePoolImp7num_gpuEi@Base 2.0.0-1
 _ZNK5geopm7IOGroup15format_functionERKNSt7__cxx1112basic_stringIcSt11char_traitsIcESaIcEEE@Base 2.0.0-1
 _ZNK5geopm8MSRIOImp6sampleEi@Base 2.0.0-1
 _ZNK5geopm8SSTIOImp6sampleEi@Base 2.0.0-1
 _ZNK5geopm8TimeZero4timeEv@Base 2.0.0-1
 _ZNK5geopm8TimeZero5errorEv@Base 2.0.0-1
 _ZNK5geopm9Exception9err_valueEv@Base 2.0.0-1
 _ZNK5geopm9SSTSignal4readEv@Base 2.0.0-1
 _ZNK6json1110JsonObjectixERKNSt7__cxx1112basic_stringIcSt11char_traitsIcESaIcEEE@Base 2.0.0-1
 _ZNK6json114Json10bool_valueEv@Base 2.0.0-1
 _ZNK6json114Json11array_itemsEv@Base 2.0.0-1
 _ZNK6json114Json12number_valueEv@Base 2.0.0-1
 _ZNK6json114Json12object_itemsB5cxx11Ev@Base 2.0.0-1
 _ZNK6json114Json12string_valueB5cxx11Ev@Base 2.0.0-1
 _ZNK6json114Json4dumpERNSt7__cxx1112basic_stringIcSt11char_traitsIcESaIcEEE@Base 2.0.0-1
 _ZNK6json114Json4typeEv@Base 2.0.0-1
 _ZNK6json114Json9has_shapeERKSt16initializer_listISt4pairINSt7__cxx1112basic_stringIcSt11char_traitsIcESaIcEEENS0_4TypeEEERS8_@Base 2.0.0-1
 _ZNK6json114Json9int_valueEv@Base 2.0.0-1
 _ZNK6json114JsoneqERKS0_@Base 2.0.0-1
 _ZNK6json114JsonixERKNSt7__cxx1112basic_stringIcSt11char_traitsIcESaIcEEE@Base 2.0.0-1
 _ZNK6json114JsonixEm@Base 2.0.0-1
 _ZNK6json114JsonltERKS0_@Base 2.0.0-1
 _ZNK6json119JsonArrayixEm@Base 2.0.0-1
 _ZNK6json119JsonValue10bool_valueEv@Base 2.0.0-1
 _ZNK6json119JsonValue11array_itemsEv@Base 2.0.0-1
 _ZNK6json119JsonValue12number_valueEv@Base 2.0.0-1
 _ZNK6json119JsonValue12object_itemsB5cxx11Ev@Base 2.0.0-1
 _ZNK6json119JsonValue12string_valueB5cxx11Ev@Base 2.0.0-1
 _ZNK6json119JsonValue9int_valueEv@Base 2.0.0-1
 _ZNK6json119JsonValueixERKNSt7__cxx1112basic_stringIcSt11char_traitsIcESaIcEEE@Base 2.0.0-1
 _ZNK6json119JsonValueixEm@Base 2.0.0-1
 _ZNSt17_Function_handlerIFN4grpc6StatusEPKvEZNS0_8internal17CallOpSendMessage11SendMessageIN12GEOPMPackage10SessionKeyEEES1_RKT_NS0_12WriteOptionsEEUlS3_E_E10_M_managerERSt9_Any_dataRKSG_St18_Manager_operation@Base 2.0.0-1
 _ZNSt17_Function_handlerIFN4grpc6StatusEPKvEZNS0_8internal17CallOpSendMessage11SendMessageIN12GEOPMPackage10SessionKeyEEES1_RKT_NS0_12WriteOptionsEEUlS3_E_E9_M_invokeERKSt9_Any_dataOS3_@Base 2.0.0-1
 _ZNSt17_Function_handlerIFN4grpc6StatusEPKvEZNS0_8internal17CallOpSendMessage11SendMessageIN12GEOPMPackage11AccessListsEEES1_RKT_NS0_12WriteOptionsEEUlS3_E_E10_M_managerERSt9_Any_dataRKSG_St18_Manager_operation@Base 2.0.0-1
 _ZNSt17_Function_handlerIFN4grpc6StatusEPKvEZNS0_8internal17CallOpSendMessage11SendMessageIN12GEOPMPackage11AccessListsEEES1_RKT_NS0_12WriteOptionsEEUlS3_E_E9_M_invokeERKSt9_Any_dataOS3_@Base 2.0.0-1
 _ZNSt17_Function_handlerIFN4grpc6StatusEPKvEZNS0_8internal17CallOpSendMessage11SendMessageIN12GEOPMPackage11InfoRequestEEES1_RKT_NS0_12WriteOptionsEEUlS3_E_E10_M_managerERSt9_Any_dataRKSG_St18_Manager_operation@Base 2.0.0-1
 _ZNSt17_Function_handlerIFN4grpc6StatusEPKvEZNS0_8internal17CallOpSendMessage11SendMessageIN12GEOPMPackage11InfoRequestEEES1_RKT_NS0_12WriteOptionsEEUlS3_E_E9_M_invokeERKSt9_Any_dataOS3_@Base 2.0.0-1
 _ZNSt17_Function_handlerIFN4grpc6StatusEPKvEZNS0_8internal17CallOpSendMessage11SendMessageIN12GEOPMPackage11ReadRequestEEES1_RKT_NS0_12WriteOptionsEEUlS3_E_E10_M_managerERSt9_Any_dataRKSG_St18_Manager_operation@Base 2.0.0-1
 _ZNSt17_Function_handlerIFN4grpc6StatusEPKvEZNS0_8internal17CallOpSendMessage11SendMessageIN12GEOPMPackage11ReadRequestEEES1_RKT_NS0_12WriteOptionsEEUlS3_E_E9_M_invokeERKSt9_Any_dataOS3_@Base 2.0.0-1
 _ZNSt17_Function_handlerIFN4grpc6StatusEPKvEZNS0_8internal17CallOpSendMessage11SendMessageIN12GEOPMPackage12BatchRequestEEES1_RKT_NS0_12WriteOptionsEEUlS3_E_E10_M_managerERSt9_Any_dataRKSG_St18_Manager_operation@Base 2.0.0-1
 _ZNSt17_Function_handlerIFN4grpc6StatusEPKvEZNS0_8internal17CallOpSendMessage11SendMessageIN12GEOPMPackage12BatchRequestEEES1_RKT_NS0_12WriteOptionsEEUlS3_E_E9_M_invokeERKSt9_Any_dataOS3_@Base 2.0.0-1
 _ZNSt17_Function_handlerIFN4grpc6StatusEPKvEZNS0_8internal17CallOpSendMessage11SendMessageIN12GEOPMPackage12BatchSessionEEES1_RKT_NS0_12WriteOptionsEEUlS3_E_E10_M_managerERSt9_Any_dataRKSG_St18_Manager_operation@Base 2.0.0-1
 _ZNSt17_Function_handlerIFN4grpc6StatusEPKvEZNS0_8internal17CallOpSendMessage11SendMessageIN12GEOPMPackage12BatchSessionEEES1_RKT_NS0_12WriteOptionsEEUlS3_E_E9_M_invokeERKSt9_Any_dataOS3_@Base 2.0.0-1
 _ZNSt17_Function_handlerIFN4grpc6StatusEPKvEZNS0_8internal17CallOpSendMessage11SendMessageIN12GEOPMPackage12WriteRequestEEES1_RKT_NS0_12WriteOptionsEEUlS3_E_E10_M_managerERSt9_Any_dataRKSG_St18_Manager_operation@Base 2.0.0-1
 _ZNSt17_Function_handlerIFN4grpc6StatusEPKvEZNS0_8internal17CallOpSendMessage11SendMessageIN12GEOPMPackage12WriteRequestEEES1_RKT_NS0_12WriteOptionsEEUlS3_E_E9_M_invokeERKSt9_Any_dataOS3_@Base 2.0.0-1
 _ZNSt17_Function_handlerIFN4grpc6StatusEPKvEZNS0_8internal17CallOpSendMessage11SendMessageIN12GEOPMPackage14ProfileRequestEEES1_RKT_NS0_12WriteOptionsEEUlS3_E_E10_M_managerERSt9_Any_dataRKSG_St18_Manager_operation@Base 2.0.0-1
 _ZNSt17_Function_handlerIFN4grpc6StatusEPKvEZNS0_8internal17CallOpSendMessage11SendMessageIN12GEOPMPackage14ProfileRequestEEES1_RKT_NS0_12WriteOptionsEEUlS3_E_E9_M_invokeERKSt9_Any_dataOS3_@Base 2.0.0-1
 _ZNSt17_Function_handlerIFN4grpc6StatusEPKvEZNS0_8internal17CallOpSendMessage11SendMessageIN12GEOPMPackage14SignalInfoListEEES1_RKT_NS0_12WriteOptionsEEUlS3_E_E10_M_managerERSt9_Any_dataRKSG_St18_Manager_operation@Base 2.0.0-1
 _ZNSt17_Function_handlerIFN4grpc6StatusEPKvEZNS0_8internal17CallOpSendMessage11SendMessageIN12GEOPMPackage14SignalInfoListEEES1_RKT_NS0_12WriteOptionsEEUlS3_E_E9_M_invokeERKSt9_Any_dataOS3_@Base 2.0.0-1
 _ZNSt17_Function_handlerIFN4grpc6StatusEPKvEZNS0_8internal17CallOpSendMessage11SendMessageIN12GEOPMPackage15ControlInfoListEEES1_RKT_NS0_12WriteOptionsEEUlS3_E_E10_M_managerERSt9_Any_dataRKSG_St18_Manager_operation@Base 2.0.0-1
 _ZNSt17_Function_handlerIFN4grpc6StatusEPKvEZNS0_8internal17CallOpSendMessage11SendMessageIN12GEOPMPackage15ControlInfoListEEES1_RKT_NS0_12WriteOptionsEEUlS3_E_E9_M_invokeERKSt9_Any_dataOS3_@Base 2.0.0-1
 _ZNSt17_Function_handlerIFN4grpc6StatusEPKvEZNS0_8internal17CallOpSendMessage11SendMessageIN12GEOPMPackage5EmptyEEES1_RKT_NS0_12WriteOptionsEEUlS3_E_E10_M_managerERSt9_Any_dataRKSG_St18_Manager_operation@Base 2.0.0-1
 _ZNSt17_Function_handlerIFN4grpc6StatusEPKvEZNS0_8internal17CallOpSendMessage11SendMessageIN12GEOPMPackage5EmptyEEES1_RKT_NS0_12WriteOptionsEEUlS3_E_E9_M_invokeERKSt9_Any_dataOS3_@Base 2.0.0-1
 _ZNSt17_Function_handlerIFN4grpc6StatusEPKvEZNS0_8internal17CallOpSendMessage11SendMessageIN12GEOPMPackage6SampleEEES1_RKT_NS0_12WriteOptionsEEUlS3_E_E10_M_managerERSt9_Any_dataRKSG_St18_Manager_operation@Base 2.0.0-1
 _ZNSt17_Function_handlerIFN4grpc6StatusEPKvEZNS0_8internal17CallOpSendMessage11SendMessageIN12GEOPMPackage6SampleEEES1_RKT_NS0_12WriteOptionsEEUlS3_E_E9_M_invokeERKSt9_Any_dataOS3_@Base 2.0.0-1
 _ZNSt17_Function_handlerIFN4grpc6StatusEPKvEZNS0_8internal17CallOpSendMessage11SendMessageIN12GEOPMPackage7PidListEEES1_RKT_NS0_12WriteOptionsEEUlS3_E_E10_M_managerERSt9_Any_dataRKSG_St18_Manager_operation@Base 2.0.0-1
 _ZNSt17_Function_handlerIFN4grpc6StatusEPKvEZNS0_8internal17CallOpSendMessage11SendMessageIN12GEOPMPackage7PidListEEES1_RKT_NS0_12WriteOptionsEEUlS3_E_E9_M_invokeERKSt9_Any_dataOS3_@Base 2.0.0-1
 _ZNSt17_Function_handlerIFN4grpc6StatusEPKvEZNS0_8internal17CallOpSendMessage11SendMessageIN12GEOPMPackage8BatchKeyEEES1_RKT_NS0_12WriteOptionsEEUlS3_E_E10_M_managerERSt9_Any_dataRKSG_St18_Manager_operation@Base 2.0.0-1
 _ZNSt17_Function_handlerIFN4grpc6StatusEPKvEZNS0_8internal17CallOpSendMessage11SendMessageIN12GEOPMPackage8BatchKeyEEES1_RKT_NS0_12WriteOptionsEEUlS3_E_E9_M_invokeERKSt9_Any_dataOS3_@Base 2.0.0-1
 _ZNSt17_Function_handlerIFN4grpc6StatusEPKvEZNS0_8internal17CallOpSendMessage11SendMessageIN12GEOPMPackage8NameListEEES1_RKT_NS0_12WriteOptionsEEUlS3_E_E10_M_managerERSt9_Any_dataRKSG_St18_Manager_operation@Base 2.0.0-1
 _ZNSt17_Function_handlerIFN4grpc6StatusEPKvEZNS0_8internal17CallOpSendMessage11SendMessageIN12GEOPMPackage8NameListEEES1_RKT_NS0_12WriteOptionsEEUlS3_E_E9_M_invokeERKSt9_Any_dataOS3_@Base 2.0.0-1
 _ZNSt17_Function_handlerIFN4grpc6StatusEPKvEZNS0_8internal17CallOpSendMessage11SendMessageIN12GEOPMPackage9TopoCacheEEES1_RKT_NS0_12WriteOptionsEEUlS3_E_E10_M_managerERSt9_Any_dataRKSG_St18_Manager_operation@Base 2.0.0-1
 _ZNSt17_Function_handlerIFN4grpc6StatusEPKvEZNS0_8internal17CallOpSendMessage11SendMessageIN12GEOPMPackage9TopoCacheEEES1_RKT_NS0_12WriteOptionsEEUlS3_E_E9_M_invokeERKSt9_Any_dataOS3_@Base 2.0.0-1
 _ZNSt17_Function_handlerIFN4grpc6StatusEPKvEZNS0_8internal17CallOpSendMessage11SendMessageINS0_10ByteBufferEEES1_RKT_NS0_12WriteOptionsEEUlS3_E_E10_M_managerERSt9_Any_dataRKSF_St18_Manager_operation@Base 2.0.0-1
 _ZNSt17_Function_handlerIFN4grpc6StatusEPKvEZNS0_8internal17CallOpSendMessage11SendMessageINS0_10ByteBufferEEES1_RKT_NS0_12WriteOptionsEEUlS3_E_E9_M_invokeERKSt9_Any_dataOS3_@Base 2.0.0-1
 _ZNSt17_Function_handlerIFNSt7__cxx1112basic_stringIcSt11char_traitsIcESaIcEEEdEPS6_E10_M_managerERSt9_Any_dataRKS9_St18_Manager_operation@Base 2.0.0-1
 _ZNSt17_Function_handlerIFNSt7__cxx1112basic_stringIcSt11char_traitsIcESaIcEEEdEPS6_E9_M_invokeERKSt9_Any_dataOd@Base 2.0.0-1
 _ZNSt17_Function_handlerIFSt10unique_ptrIN5geopm7IOGroupESt14default_deleteIS2_EEvEPS6_E10_M_managerERSt9_Any_dataRKS9_St18_Manager_operation@Base 2.0.0-1
 _ZNSt17_Function_handlerIFSt10unique_ptrIN5geopm7IOGroupESt14default_deleteIS2_EEvEPS6_E9_M_invokeERKSt9_Any_data@Base 2.0.0-1
 _ZNSt17_Function_handlerIFbRKN6json114JsonEEPS4_E10_M_managerERSt9_Any_dataRKS7_St18_Manager_operation@Base 2.0.0-1
 _ZNSt17_Function_handlerIFbRKN6json114JsonEEPS4_E9_M_invokeERKSt9_Any_dataS3_@Base 2.0.0-1
 _ZNSt17_Function_handlerIFdRKSt6vectorIdSaIdEEEPS5_E10_M_managerERSt9_Any_dataRKS8_St18_Manager_operation@Base 2.0.0-1
 _ZNSt17_Function_handlerIFdRKSt6vectorIdSaIdEEEPS5_E9_M_invokeERKSt9_Any_dataS4_@Base 2.0.0-1
 _ZNSt17_Function_handlerIFdvESt5_BindIFMN5geopm10CNLIOGroupEKFdRKNSt7__cxx1112basic_stringIcSt11char_traitsIcESaIcEEEEPS3_S9_EEE10_M_managerERSt9_Any_dataRKSI_St18_Manager_operation@Base 2.0.0-1
 _ZNSt17_Function_handlerIFdvESt5_BindIFMN5geopm10CNLIOGroupEKFdRKNSt7__cxx1112basic_stringIcSt11char_traitsIcESaIcEEEEPS3_S9_EEE9_M_invokeERKSt9_Any_data@Base 2.0.0-1
 _ZNSt17_Function_handlerIFdvESt5_BindIFMN5geopm10CNLIOGroupEdPS3_EEE10_M_managerERSt9_Any_dataRKS9_St18_Manager_operation@Base 2.0.0-1
 _ZNSt17_Function_handlerIFdvESt5_BindIFMN5geopm10CNLIOGroupEdPS3_EEE9_M_invokeERKSt9_Any_data@Base 2.0.0-1
 _ZNSt17_Function_handlerIFdvESt5_BindIFPFdRKNSt7__cxx1112basic_stringIcSt11char_traitsIcESaIcEEES9_ES7_S7_EEE10_M_managerERSt9_Any_dataRKSF_St18_Manager_operation@Base 2.0.0-1
 _ZNSt17_Function_handlerIFdvESt5_BindIFPFdRKNSt7__cxx1112basic_stringIcSt11char_traitsIcESaIcEEES9_ES7_S7_EEE9_M_invokeERKSt9_Any_data@Base 2.0.0-1
 _ZNSt17_Function_handlerIFivESt5_BindIFPFliPKvmlEiS3_jlEEE10_M_managerERSt9_Any_dataRKS9_St18_Manager_operation@Base 2.0.0-1
 _ZNSt17_Function_handlerIFivESt5_BindIFPFliPKvmlEiS3_jlEEE9_M_invokeERKSt9_Any_data@Base 2.0.0-1
 _ZNSt17_Function_handlerIFivESt5_BindIFPFliPvmlEiS2_jlEEE10_M_managerERSt9_Any_dataRKS8_St18_Manager_operation@Base 2.0.0-1
 _ZNSt17_Function_handlerIFivESt5_BindIFPFliPvmlEiS2_jlEEE9_M_invokeERKSt9_Any_data@Base 2.0.0-1
 _ZNSt17_Function_handlerIFvbEZN9grpc_impl8internal23ClientCallbackUnaryImpl9StartCallEvEUlbE0_E10_M_managerERSt9_Any_dataRKS6_St18_Manager_operation@Base 2.0.0-1
 _ZNSt17_Function_handlerIFvbEZN9grpc_impl8internal23ClientCallbackUnaryImpl9StartCallEvEUlbE0_E9_M_invokeERKSt9_Any_dataOb@Base 2.0.0-1
 _ZNSt17_Function_handlerIFvbEZN9grpc_impl8internal23ClientCallbackUnaryImpl9StartCallEvEUlbE_E10_M_managerERSt9_Any_dataRKS6_St18_Manager_operation@Base 2.0.0-1
 _ZNSt17_Function_handlerIFvbEZN9grpc_impl8internal23ClientCallbackUnaryImpl9StartCallEvEUlbE_E9_M_invokeERKSt9_Any_dataOb@Base 2.0.0-1
 _ZSt19piecewise_construct@Base 2.0.0-1
 _ZTIFNSt7__cxx1112basic_stringIcSt11char_traitsIcESaIcEEEdE@Base 2.0.0-1
 _ZTIFSt10unique_ptrIN5geopm7IOGroupESt14default_deleteIS1_EEvE@Base 2.0.0-1
 _ZTIFbRKN6json114JsonEE@Base 2.0.0-1
 _ZTIFdRKSt6vectorIdSaIdEEE@Base 2.0.0-1
 _ZTIN12GEOPMPackage10SessionKeyE@Base 2.0.0-1
 _ZTIN12GEOPMPackage11AccessListsE@Base 2.0.0-1
 _ZTIN12GEOPMPackage11InfoRequestE@Base 2.0.0-1
 _ZTIN12GEOPMPackage11ReadRequestE@Base 2.0.0-1
 _ZTIN12GEOPMPackage12BatchRequestE@Base 2.0.0-1
 _ZTIN12GEOPMPackage12BatchSessionE@Base 2.0.0-1
 _ZTIN12GEOPMPackage12GEOPMService13StubInterface28experimental_async_interfaceE@Base 2.0.0-1
 _ZTIN12GEOPMPackage12GEOPMService13StubInterfaceE@Base 2.0.0-1
 _ZTIN12GEOPMPackage12GEOPMService4Stub18experimental_asyncE@Base 2.0.0-1
 _ZTIN12GEOPMPackage12GEOPMService4StubE@Base 2.0.0-1
 _ZTIN12GEOPMPackage12GEOPMService7ServiceE@Base 2.0.0-1
 _ZTIN12GEOPMPackage12WriteRequestE@Base 2.0.0-1
 _ZTIN12GEOPMPackage14ProfileRequestE@Base 2.0.0-1
 _ZTIN12GEOPMPackage14SignalInfoListE@Base 2.0.0-1
 _ZTIN12GEOPMPackage15ControlInfoListE@Base 2.0.0-1
 _ZTIN12GEOPMPackage15PlatformRequestE@Base 2.0.0-1
 _ZTIN12GEOPMPackage25SignalInfoList_SignalInfoE@Base 2.0.0-1
 _ZTIN12GEOPMPackage27ControlInfoList_ControlInfoE@Base 2.0.0-1
 _ZTIN12GEOPMPackage5EmptyE@Base 2.0.0-1
 _ZTIN12GEOPMPackage6SampleE@Base 2.0.0-1
 _ZTIN12GEOPMPackage7PidListE@Base 2.0.0-1
 _ZTIN12GEOPMPackage8BatchKeyE@Base 2.0.0-1
 _ZTIN12GEOPMPackage8NameListE@Base 2.0.0-1
 _ZTIN12GEOPMPackage9TopoCacheE@Base 2.0.0-1
 _ZTIN4grpc12experimental23InterceptorBatchMethodsE@Base 2.0.0-1
 _ZTIN4grpc16ChannelInterfaceE@Base 2.0.0-1
 _ZTIN4grpc18GrpcLibraryCodegenE@Base 2.0.0-1
 _ZTIN4grpc7ServiceE@Base 2.0.0-1
 _ZTIN4grpc8internal13MethodHandlerE@Base 2.0.0-1
 _ZTIN4grpc8internal15DeserializeFuncE@Base 2.0.0-1
 _ZTIN4grpc8internal17CallOpRecvMessageIN12GEOPMPackage10SessionKeyEEE@Base 2.0.0-1
 _ZTIN4grpc8internal17CallOpRecvMessageIN12GEOPMPackage11AccessListsEEE@Base 2.0.0-1
 _ZTIN4grpc8internal17CallOpRecvMessageIN12GEOPMPackage14SignalInfoListEEE@Base 2.0.0-1
 _ZTIN4grpc8internal17CallOpRecvMessageIN12GEOPMPackage15ControlInfoListEEE@Base 2.0.0-1
 _ZTIN4grpc8internal17CallOpRecvMessageIN12GEOPMPackage5EmptyEEE@Base 2.0.0-1
 _ZTIN4grpc8internal17CallOpRecvMessageIN12GEOPMPackage6SampleEEE@Base 2.0.0-1
 _ZTIN4grpc8internal17CallOpRecvMessageIN12GEOPMPackage7PidListEEE@Base 2.0.0-1
 _ZTIN4grpc8internal17CallOpRecvMessageIN12GEOPMPackage8BatchKeyEEE@Base 2.0.0-1
 _ZTIN4grpc8internal17CallOpRecvMessageIN12GEOPMPackage8NameListEEE@Base 2.0.0-1
 _ZTIN4grpc8internal17CallOpRecvMessageIN12GEOPMPackage9TopoCacheEEE@Base 2.0.0-1
 _ZTIN4grpc8internal17CallOpSendMessageE@Base 2.0.0-1
 _ZTIN4grpc8internal18CallOpSetInterfaceE@Base 2.0.0-1
 _ZTIN4grpc8internal18CompletionQueueTagE@Base 2.0.0-1
 _ZTIN4grpc8internal21CallOpClientSendCloseE@Base 2.0.0-1
 _ZTIN4grpc8internal22CallOpClientRecvStatusE@Base 2.0.0-1
 _ZTIN4grpc8internal22CallOpServerSendStatusE@Base 2.0.0-1
 _ZTIN4grpc8internal24CallOpGenericRecvMessageE@Base 2.0.0-1
 _ZTIN4grpc8internal25CallOpRecvInitialMetadataE@Base 2.0.0-1
 _ZTIN4grpc8internal25CallOpSendInitialMetadataE@Base 2.0.0-1
 _ZTIN4grpc8internal8CallNoOpILi3EEE@Base 2.0.0-1
 _ZTIN4grpc8internal8CallNoOpILi4EEE@Base 2.0.0-1
 _ZTIN4grpc8internal8CallNoOpILi5EEE@Base 2.0.0-1
 _ZTIN4grpc8internal8CallNoOpILi6EEE@Base 2.0.0-1
 _ZTIN5geopm10CNLIOGroupE@Base 2.0.0-1
 _ZTIN5geopm10IOUringImpE@Base 2.0.0-1
 _ZTIN5geopm10MSRIOGroupE@Base 2.0.0-1
 _ZTIN5geopm10PlatformIOE@Base 2.0.0-1
 _ZTIN5geopm10SSTControlE@Base 2.0.0-1
 _ZTIN5geopm10SSTIOGroupE@Base 2.0.0-1
 _ZTIN5geopm10TimeSignalE@Base 2.0.0-1
 _ZTIN5geopm11BatchClientE@Base 2.0.0-1
 _ZTIN5geopm11BatchServerE@Base 2.0.0-1
 _ZTIN5geopm11BatchStatusE@Base 2.0.0-1
 _ZTIN5geopm11DCGMIOGroupE@Base 2.0.0-1
 _ZTIN5geopm11GPUTopoNullE@Base 2.0.0-1
 _ZTIN5geopm11NVMLGPUTopoE@Base 2.0.0-1
 _ZTIN5geopm11NVMLIOGroupE@Base 2.0.0-1
 _ZTIN5geopm11POSIXSignalE@Base 2.0.0-1
 _ZTIN5geopm11RatioSignalE@Base 2.0.0-1
 _ZTIN5geopm11SSTIoctlImpE@Base 2.0.0-1
 _ZTIN5geopm11SaveControlE@Base 2.0.0-1
 _ZTIN5geopm11TimeIOGroupE@Base 2.0.0-1
 _ZTIN5geopm12PlatformTopoE@Base 2.0.0-1
 _ZTIN5geopm12RawMSRSignalE@Base 2.0.0-1
 _ZTIN5geopm12SDBusMessageE@Base 2.0.0-1
 _ZTIN5geopm12ServiceProxyE@Base 2.0.0-1
 _ZTIN5geopm12SharedMemoryE@Base 2.0.0-1
 _ZTIN5geopm13DomainControlE@Base 2.0.0-1
 _ZTIN5geopm13PlatformIOImpE@Base 2.0.0-1
 _ZTIN5geopm13PluginFactoryINS_7IOGroupEEE@Base 2.0.0-1
 _ZTIN5geopm14BatchClientImpE@Base 2.0.0-1
 _ZTIN5geopm14BatchServerImpE@Base 2.0.0-1
 _ZTIN5geopm14BatchStatusImpE@Base 2.0.0-1
 _ZTIN5geopm14CombinedSignalE@Base 2.0.0-1
 _ZTIN5geopm14CpuinfoIOGroupE@Base 2.0.0-1
 _ZTIN5geopm14MSRFieldSignalE@Base 2.0.0-1
 _ZTIN5geopm14POSIXSignalImpE@Base 2.0.0-1
 _ZTIN5geopm14SaveControlImpE@Base 2.0.0-1
 _ZTIN5geopm14ServiceIOGroupE@Base 2.0.0-1
 _ZTIN5geopm15CombinedControlE@Base 2.0.0-1
 _ZTIN5geopm15IOUringFallbackE@Base 2.0.0-1
 _ZTIN5geopm15LevelZeroSignalE@Base 2.0.0-1
 _ZTIN5geopm15MSRFieldControlE@Base 2.0.0-1
 _ZTIN5geopm15PlatformTopoImpE@Base 2.0.0-1
 _ZTIN5geopm15SDBusMessageImpE@Base 2.0.0-1
 _ZTIN5geopm15ServiceProxyImpE@Base 2.0.0-1
 _ZTIN5geopm15SharedMemoryImpE@Base 2.0.0-1
 _ZTIN5geopm16DerivativeSignalE@Base 2.0.0-1
 _ZTIN5geopm16DifferenceSignalE@Base 2.0.0-1
 _ZTIN5geopm16GRPCServiceProxyE@Base 2.0.0-1
 _ZTIN5geopm16LevelZeroGPUTopoE@Base 2.0.0-1
 _ZTIN5geopm16LevelZeroIOGroupE@Base 2.0.0-1
 _ZTIN5geopm17BatchStatusClientE@Base 2.0.0-1
 _ZTIN5geopm17BatchStatusServerE@Base 2.0.0-1
 _ZTIN5geopm18ConstConfigIOGroupE@Base 2.0.0-1
 _ZTIN5geopm19LevelZeroDevicePoolE@Base 2.0.0-1
 _ZTIN5geopm20MultiplicationSignalE@Base 2.0.0-1
 _ZTIN5geopm22LevelZeroDevicePoolImpE@Base 2.0.0-1
 _ZTIN5geopm22SharedMemoryScopedLockE@Base 2.0.0-1
 _ZTIN5geopm5MSRIOE@Base 2.0.0-1
 _ZTIN5geopm5SDBusE@Base 2.0.0-1
 _ZTIN5geopm5SSTIOE@Base 2.0.0-1
 _ZTIN5geopm6SignalE@Base 2.0.0-1
 _ZTIN5geopm7ControlE@Base 2.0.0-1
 _ZTIN5geopm7GPUTopoE@Base 2.0.0-1
 _ZTIN5geopm7IOGroupE@Base 2.0.0-1
 _ZTIN5geopm7IOUringE@Base 2.0.0-1
 _ZTIN5geopm7MSRPathE@Base 2.0.0-1
 _ZTIN5geopm8MSRIOImpE@Base 2.0.0-1
 _ZTIN5geopm8SDBusImpE@Base 2.0.0-1
 _ZTIN5geopm8SSTIOImpE@Base 2.0.0-1
 _ZTIN5geopm8SSTIoctlE@Base 2.0.0-1
 _ZTIN5geopm9ExceptionE@Base 2.0.0-1
 _ZTIN5geopm9SSTSignalE@Base 2.0.0-1
 _ZTIN6google8protobuf2io19ZeroCopyInputStreamE@Base 2.0.0-1
 _ZTIN6json1110JsonObjectE@Base 2.0.0-1
 _ZTIN6json115ValueILNS_4Json4TypeE0ENS_10NullStructEEE@Base 2.0.0-1
 _ZTIN6json115ValueILNS_4Json4TypeE1EdEE@Base 2.0.0-1
 _ZTIN6json115ValueILNS_4Json4TypeE1EiEE@Base 2.0.0-1
 _ZTIN6json115ValueILNS_4Json4TypeE2EbEE@Base 2.0.0-1
 _ZTIN6json115ValueILNS_4Json4TypeE3ENSt7__cxx1112basic_stringIcSt11char_traitsIcESaIcEEEEE@Base 2.0.0-1
 _ZTIN6json115ValueILNS_4Json4TypeE4ESt6vectorIS1_SaIS1_EEEE@Base 2.0.0-1
 _ZTIN6json115ValueILNS_4Json4TypeE5ESt3mapINSt7__cxx1112basic_stringIcSt11char_traitsIcESaIcEEES1_St4lessIS9_ESaISt4pairIKS9_S1_EEEEE@Base 2.0.0-1
 _ZTIN6json119JsonArrayE@Base 2.0.0-1
 _ZTIN6json119JsonValueE@Base 2.0.0-1
 _ZTIN9grpc_impl19ClientCallbackUnaryE@Base 2.0.0-1
 _ZTIN9grpc_impl34ClientAsyncResponseReaderInterfaceIN12GEOPMPackage10SessionKeyEEE@Base 2.0.0-1
 _ZTIN9grpc_impl34ClientAsyncResponseReaderInterfaceIN12GEOPMPackage11AccessListsEEE@Base 2.0.0-1
 _ZTIN9grpc_impl34ClientAsyncResponseReaderInterfaceIN12GEOPMPackage14SignalInfoListEEE@Base 2.0.0-1
 _ZTIN9grpc_impl34ClientAsyncResponseReaderInterfaceIN12GEOPMPackage15ControlInfoListEEE@Base 2.0.0-1
 _ZTIN9grpc_impl34ClientAsyncResponseReaderInterfaceIN12GEOPMPackage5EmptyEEE@Base 2.0.0-1
 _ZTIN9grpc_impl34ClientAsyncResponseReaderInterfaceIN12GEOPMPackage6SampleEEE@Base 2.0.0-1
 _ZTIN9grpc_impl34ClientAsyncResponseReaderInterfaceIN12GEOPMPackage7PidListEEE@Base 2.0.0-1
 _ZTIN9grpc_impl34ClientAsyncResponseReaderInterfaceIN12GEOPMPackage8BatchKeyEEE@Base 2.0.0-1
 _ZTIN9grpc_impl34ClientAsyncResponseReaderInterfaceIN12GEOPMPackage8NameListEEE@Base 2.0.0-1
 _ZTIN9grpc_impl34ClientAsyncResponseReaderInterfaceIN12GEOPMPackage9TopoCacheEEE@Base 2.0.0-1
 _ZTIPFNSt7__cxx1112basic_stringIcSt11char_traitsIcESaIcEEEdE@Base 2.0.0-1
 _ZTIPFSt10unique_ptrIN5geopm7IOGroupESt14default_deleteIS1_EEvE@Base 2.0.0-1
 _ZTIPFbRKN6json114JsonEE@Base 2.0.0-1
 _ZTIPFdRKSt6vectorIdSaIdEEE@Base 2.0.0-1
 _ZTISt11_Mutex_baseILN9__gnu_cxx12_Lock_policyE2EE@Base 2.0.0-1
 _ZTISt16_Sp_counted_baseILN9__gnu_cxx12_Lock_policyE2EE@Base 2.0.0-1
 _ZTISt17_Weak_result_typeIMN5geopm10CNLIOGroupEKFdRKNSt7__cxx1112basic_stringIcSt11char_traitsIcESaIcEEEEE@Base 2.0.0-1
 _ZTISt17_Weak_result_typeIMN5geopm10CNLIOGroupEdE@Base 2.0.0-1
 _ZTISt17_Weak_result_typeIPFdRKNSt7__cxx1112basic_stringIcSt11char_traitsIcESaIcEEES7_EE@Base 2.0.0-1
 _ZTISt17_Weak_result_typeIPFliPKvmlEE@Base 2.0.0-1
 _ZTISt17_Weak_result_typeIPFliPvmlEE@Base 2.0.0-1
 _ZTISt19_Sp_make_shared_tag@Base 2.0.0-1
 _ZTISt22_Weak_result_type_implIPFdRKNSt7__cxx1112basic_stringIcSt11char_traitsIcESaIcEEES7_EE@Base 2.0.0-1
 _ZTISt22_Weak_result_type_implIPFliPKvmlEE@Base 2.0.0-1
 _ZTISt22_Weak_result_type_implIPFliPvmlEE@Base 2.0.0-1
 _ZTISt24_Weak_result_type_memfunIMN5geopm10CNLIOGroupEKFdRKNSt7__cxx1112basic_stringIcSt11char_traitsIcESaIcEEEELb1EE@Base 2.0.0-1
 _ZTISt24_Weak_result_type_memfunIMN5geopm10CNLIOGroupEdLb0EE@Base 2.0.0-1
 _ZTISt24_Weak_result_type_memfunIPFdRKNSt7__cxx1112basic_stringIcSt11char_traitsIcESaIcEEES7_ELb0EE@Base 2.0.0-1
 _ZTISt24_Weak_result_type_memfunIPFliPKvmlELb0EE@Base 2.0.0-1
 _ZTISt24_Weak_result_type_memfunIPFliPvmlELb0EE@Base 2.0.0-1
 _ZTISt5_BindIFMN5geopm10CNLIOGroupEKFdRKNSt7__cxx1112basic_stringIcSt11char_traitsIcESaIcEEEEPS1_S7_EE@Base 2.0.0-1
 _ZTISt5_BindIFMN5geopm10CNLIOGroupEdPS1_EE@Base 2.0.0-1
 _ZTISt5_BindIFPFdRKNSt7__cxx1112basic_stringIcSt11char_traitsIcESaIcEEES7_ES5_S5_EE@Base 2.0.0-1
 _ZTISt5_BindIFPFliPKvmlEiS1_jlEE@Base 2.0.0-1
 _ZTISt5_BindIFPFliPvmlEiS0_jlEE@Base 2.0.0-1
 _ZTIZN4grpc8internal17CallOpSendMessage11SendMessageIN12GEOPMPackage10SessionKeyEEENS_6StatusERKT_NS_12WriteOptionsEEUlPKvE_@Base 2.0.0-1
 _ZTIZN4grpc8internal17CallOpSendMessage11SendMessageIN12GEOPMPackage11AccessListsEEENS_6StatusERKT_NS_12WriteOptionsEEUlPKvE_@Base 2.0.0-1
 _ZTIZN4grpc8internal17CallOpSendMessage11SendMessageIN12GEOPMPackage11InfoRequestEEENS_6StatusERKT_NS_12WriteOptionsEEUlPKvE_@Base 2.0.0-1
 _ZTIZN4grpc8internal17CallOpSendMessage11SendMessageIN12GEOPMPackage11ReadRequestEEENS_6StatusERKT_NS_12WriteOptionsEEUlPKvE_@Base 2.0.0-1
 _ZTIZN4grpc8internal17CallOpSendMessage11SendMessageIN12GEOPMPackage12BatchRequestEEENS_6StatusERKT_NS_12WriteOptionsEEUlPKvE_@Base 2.0.0-1
 _ZTIZN4grpc8internal17CallOpSendMessage11SendMessageIN12GEOPMPackage12BatchSessionEEENS_6StatusERKT_NS_12WriteOptionsEEUlPKvE_@Base 2.0.0-1
 _ZTIZN4grpc8internal17CallOpSendMessage11SendMessageIN12GEOPMPackage12WriteRequestEEENS_6StatusERKT_NS_12WriteOptionsEEUlPKvE_@Base 2.0.0-1
 _ZTIZN4grpc8internal17CallOpSendMessage11SendMessageIN12GEOPMPackage14ProfileRequestEEENS_6StatusERKT_NS_12WriteOptionsEEUlPKvE_@Base 2.0.0-1
 _ZTIZN4grpc8internal17CallOpSendMessage11SendMessageIN12GEOPMPackage14SignalInfoListEEENS_6StatusERKT_NS_12WriteOptionsEEUlPKvE_@Base 2.0.0-1
 _ZTIZN4grpc8internal17CallOpSendMessage11SendMessageIN12GEOPMPackage15ControlInfoListEEENS_6StatusERKT_NS_12WriteOptionsEEUlPKvE_@Base 2.0.0-1
 _ZTIZN4grpc8internal17CallOpSendMessage11SendMessageIN12GEOPMPackage5EmptyEEENS_6StatusERKT_NS_12WriteOptionsEEUlPKvE_@Base 2.0.0-1
 _ZTIZN4grpc8internal17CallOpSendMessage11SendMessageIN12GEOPMPackage6SampleEEENS_6StatusERKT_NS_12WriteOptionsEEUlPKvE_@Base 2.0.0-1
 _ZTIZN4grpc8internal17CallOpSendMessage11SendMessageIN12GEOPMPackage7PidListEEENS_6StatusERKT_NS_12WriteOptionsEEUlPKvE_@Base 2.0.0-1
 _ZTIZN4grpc8internal17CallOpSendMessage11SendMessageIN12GEOPMPackage8BatchKeyEEENS_6StatusERKT_NS_12WriteOptionsEEUlPKvE_@Base 2.0.0-1
 _ZTIZN4grpc8internal17CallOpSendMessage11SendMessageIN12GEOPMPackage8NameListEEENS_6StatusERKT_NS_12WriteOptionsEEUlPKvE_@Base 2.0.0-1
 _ZTIZN4grpc8internal17CallOpSendMessage11SendMessageIN12GEOPMPackage9TopoCacheEEENS_6StatusERKT_NS_12WriteOptionsEEUlPKvE_@Base 2.0.0-1
 _ZTIZN4grpc8internal17CallOpSendMessage11SendMessageINS_10ByteBufferEEENS_6StatusERKT_NS_12WriteOptionsEEUlPKvE_@Base 2.0.0-1
 _ZTIZN9grpc_impl8internal23ClientCallbackUnaryImpl9StartCallEvEUlbE0_@Base 2.0.0-1
 _ZTIZN9grpc_impl8internal23ClientCallbackUnaryImpl9StartCallEvEUlbE_@Base 2.0.0-1
 _ZTSFNSt7__cxx1112basic_stringIcSt11char_traitsIcESaIcEEEdE@Base 2.0.0-1
 _ZTSFSt10unique_ptrIN5geopm7IOGroupESt14default_deleteIS1_EEvE@Base 2.0.0-1
 _ZTSFbRKN6json114JsonEE@Base 2.0.0-1
 _ZTSFdRKSt6vectorIdSaIdEEE@Base 2.0.0-1
 _ZTSN12GEOPMPackage10SessionKeyE@Base 2.0.0-1
 _ZTSN12GEOPMPackage11AccessListsE@Base 2.0.0-1
 _ZTSN12GEOPMPackage11InfoRequestE@Base 2.0.0-1
 _ZTSN12GEOPMPackage11ReadRequestE@Base 2.0.0-1
 _ZTSN12GEOPMPackage12BatchRequestE@Base 2.0.0-1
 _ZTSN12GEOPMPackage12BatchSessionE@Base 2.0.0-1
 _ZTSN12GEOPMPackage12GEOPMService13StubInterface28experimental_async_interfaceE@Base 2.0.0-1
 _ZTSN12GEOPMPackage12GEOPMService13StubInterfaceE@Base 2.0.0-1
 _ZTSN12GEOPMPackage12GEOPMService4Stub18experimental_asyncE@Base 2.0.0-1
 _ZTSN12GEOPMPackage12GEOPMService4StubE@Base 2.0.0-1
 _ZTSN12GEOPMPackage12GEOPMService7ServiceE@Base 2.0.0-1
 _ZTSN12GEOPMPackage12WriteRequestE@Base 2.0.0-1
 _ZTSN12GEOPMPackage14ProfileRequestE@Base 2.0.0-1
 _ZTSN12GEOPMPackage14SignalInfoListE@Base 2.0.0-1
 _ZTSN12GEOPMPackage15ControlInfoListE@Base 2.0.0-1
 _ZTSN12GEOPMPackage15PlatformRequestE@Base 2.0.0-1
 _ZTSN12GEOPMPackage25SignalInfoList_SignalInfoE@Base 2.0.0-1
 _ZTSN12GEOPMPackage27ControlInfoList_ControlInfoE@Base 2.0.0-1
 _ZTSN12GEOPMPackage5EmptyE@Base 2.0.0-1
 _ZTSN12GEOPMPackage6SampleE@Base 2.0.0-1
 _ZTSN12GEOPMPackage7PidListE@Base 2.0.0-1
 _ZTSN12GEOPMPackage8BatchKeyE@Base 2.0.0-1
 _ZTSN12GEOPMPackage8NameListE@Base 2.0.0-1
 _ZTSN12GEOPMPackage9TopoCacheE@Base 2.0.0-1
 _ZTSN4grpc12experimental23InterceptorBatchMethodsE@Base 2.0.0-1
 _ZTSN4grpc16ChannelInterfaceE@Base 2.0.0-1
 _ZTSN4grpc17ProtoBufferReaderE@Base 2.0.0-1
 _ZTSN4grpc17ProtoBufferWriterE@Base 2.0.0-1
 _ZTSN4grpc18GrpcLibraryCodegenE@Base 2.0.0-1
 _ZTSN4grpc7ServiceE@Base 2.0.0-1
 _ZTSN4grpc8internal13MethodHandlerE@Base 2.0.0-1
 _ZTSN4grpc8internal15DeserializeFuncE@Base 2.0.0-1
 _ZTSN4grpc8internal17CallOpRecvMessageIN12GEOPMPackage10SessionKeyEEE@Base 2.0.0-1
 _ZTSN4grpc8internal17CallOpRecvMessageIN12GEOPMPackage11AccessListsEEE@Base 2.0.0-1
 _ZTSN4grpc8internal17CallOpRecvMessageIN12GEOPMPackage14SignalInfoListEEE@Base 2.0.0-1
 _ZTSN4grpc8internal17CallOpRecvMessageIN12GEOPMPackage15ControlInfoListEEE@Base 2.0.0-1
 _ZTSN4grpc8internal17CallOpRecvMessageIN12GEOPMPackage5EmptyEEE@Base 2.0.0-1
 _ZTSN4grpc8internal17CallOpRecvMessageIN12GEOPMPackage6SampleEEE@Base 2.0.0-1
 _ZTSN4grpc8internal17CallOpRecvMessageIN12GEOPMPackage7PidListEEE@Base 2.0.0-1
 _ZTSN4grpc8internal17CallOpRecvMessageIN12GEOPMPackage8BatchKeyEEE@Base 2.0.0-1
 _ZTSN4grpc8internal17CallOpRecvMessageIN12GEOPMPackage8NameListEEE@Base 2.0.0-1
 _ZTSN4grpc8internal17CallOpRecvMessageIN12GEOPMPackage9TopoCacheEEE@Base 2.0.0-1
 _ZTSN4grpc8internal17CallOpSendMessageE@Base 2.0.0-1
 _ZTSN4grpc8internal18CallOpSetInterfaceE@Base 2.0.0-1
 _ZTSN4grpc8internal18CompletionQueueTagE@Base 2.0.0-1
 _ZTSN4grpc8internal18InterceptedChannelE@Base 2.0.0-1
 _ZTSN4grpc8internal19DeserializeFuncTypeIN12GEOPMPackage10SessionKeyEEE@Base 2.0.0-1
 _ZTSN4grpc8internal19DeserializeFuncTypeIN12GEOPMPackage11AccessListsEEE@Base 2.0.0-1
 _ZTSN4grpc8internal19DeserializeFuncTypeIN12GEOPMPackage14SignalInfoListEEE@Base 2.0.0-1
 _ZTSN4grpc8internal19DeserializeFuncTypeIN12GEOPMPackage15ControlInfoListEEE@Base 2.0.0-1
 _ZTSN4grpc8internal19DeserializeFuncTypeIN12GEOPMPackage5EmptyEEE@Base 2.0.0-1
 _ZTSN4grpc8internal19DeserializeFuncTypeIN12GEOPMPackage6SampleEEE@Base 2.0.0-1
 _ZTSN4grpc8internal19DeserializeFuncTypeIN12GEOPMPackage7PidListEEE@Base 2.0.0-1
 _ZTSN4grpc8internal19DeserializeFuncTypeIN12GEOPMPackage8BatchKeyEEE@Base 2.0.0-1
 _ZTSN4grpc8internal19DeserializeFuncTypeIN12GEOPMPackage8NameListEEE@Base 2.0.0-1
 _ZTSN4grpc8internal19DeserializeFuncTypeIN12GEOPMPackage9TopoCacheEEE@Base 2.0.0-1
 _ZTSN4grpc8internal21CallOpClientSendCloseE@Base 2.0.0-1
 _ZTSN4grpc8internal22CallOpClientRecvStatusE@Base 2.0.0-1
 _ZTSN4grpc8internal22CallOpServerSendStatusE@Base 2.0.0-1
 _ZTSN4grpc8internal24CallOpGenericRecvMessageE@Base 2.0.0-1
 _ZTSN4grpc8internal25CallOpRecvInitialMetadataE@Base 2.0.0-1
 _ZTSN4grpc8internal25CallOpSendInitialMetadataE@Base 2.0.0-1
 _ZTSN4grpc8internal27InterceptorBatchMethodsImplE@Base 2.0.0-1
 _ZTSN4grpc8internal8CallNoOpILi3EEE@Base 2.0.0-1
 _ZTSN4grpc8internal8CallNoOpILi4EEE@Base 2.0.0-1
 _ZTSN4grpc8internal8CallNoOpILi5EEE@Base 2.0.0-1
 _ZTSN4grpc8internal8CallNoOpILi6EEE@Base 2.0.0-1
 _ZTSN4grpc8internal9CallOpSetINS0_17CallOpRecvMessageIN12GEOPMPackage10SessionKeyEEENS0_22CallOpClientRecvStatusENS0_8CallNoOpILi3EEENS7_ILi4EEENS7_ILi5EEENS7_ILi6EEEEE@Base 2.0.0-1
 _ZTSN4grpc8internal9CallOpSetINS0_17CallOpRecvMessageIN12GEOPMPackage11AccessListsEEENS0_22CallOpClientRecvStatusENS0_8CallNoOpILi3EEENS7_ILi4EEENS7_ILi5EEENS7_ILi6EEEEE@Base 2.0.0-1
 _ZTSN4grpc8internal9CallOpSetINS0_17CallOpRecvMessageIN12GEOPMPackage14SignalInfoListEEENS0_22CallOpClientRecvStatusENS0_8CallNoOpILi3EEENS7_ILi4EEENS7_ILi5EEENS7_ILi6EEEEE@Base 2.0.0-1
 _ZTSN4grpc8internal9CallOpSetINS0_17CallOpRecvMessageIN12GEOPMPackage15ControlInfoListEEENS0_22CallOpClientRecvStatusENS0_8CallNoOpILi3EEENS7_ILi4EEENS7_ILi5EEENS7_ILi6EEEEE@Base 2.0.0-1
 _ZTSN4grpc8internal9CallOpSetINS0_17CallOpRecvMessageIN12GEOPMPackage5EmptyEEENS0_22CallOpClientRecvStatusENS0_8CallNoOpILi3EEENS7_ILi4EEENS7_ILi5EEENS7_ILi6EEEEE@Base 2.0.0-1
 _ZTSN4grpc8internal9CallOpSetINS0_17CallOpRecvMessageIN12GEOPMPackage6SampleEEENS0_22CallOpClientRecvStatusENS0_8CallNoOpILi3EEENS7_ILi4EEENS7_ILi5EEENS7_ILi6EEEEE@Base 2.0.0-1
 _ZTSN4grpc8internal9CallOpSetINS0_17CallOpRecvMessageIN12GEOPMPackage7PidListEEENS0_22CallOpClientRecvStatusENS0_8CallNoOpILi3EEENS7_ILi4EEENS7_ILi5EEENS7_ILi6EEEEE@Base 2.0.0-1
 _ZTSN4grpc8internal9CallOpSetINS0_17CallOpRecvMessageIN12GEOPMPackage8BatchKeyEEENS0_22CallOpClientRecvStatusENS0_8CallNoOpILi3EEENS7_ILi4EEENS7_ILi5EEENS7_ILi6EEEEE@Base 2.0.0-1
 _ZTSN4grpc8internal9CallOpSetINS0_17CallOpRecvMessageIN12GEOPMPackage8NameListEEENS0_22CallOpClientRecvStatusENS0_8CallNoOpILi3EEENS7_ILi4EEENS7_ILi5EEENS7_ILi6EEEEE@Base 2.0.0-1
 _ZTSN4grpc8internal9CallOpSetINS0_17CallOpRecvMessageIN12GEOPMPackage9TopoCacheEEENS0_22CallOpClientRecvStatusENS0_8CallNoOpILi3EEENS7_ILi4EEENS7_ILi5EEENS7_ILi6EEEEE@Base 2.0.0-1
 _ZTSN4grpc8internal9CallOpSetINS0_24CallOpGenericRecvMessageENS0_22CallOpClientRecvStatusENS0_8CallNoOpILi3EEENS4_ILi4EEENS4_ILi5EEENS4_ILi6EEEEE@Base 2.0.0-1
 _ZTSN4grpc8internal9CallOpSetINS0_25CallOpSendInitialMetadataENS0_17CallOpSendMessageENS0_21CallOpClientSendCloseENS0_25CallOpRecvInitialMetadataENS0_17CallOpRecvMessageIN12GEOPMPackage10SessionKeyEEENS0_22CallOpClientRecvStatusEEE@Base 2.0.0-1
 _ZTSN4grpc8internal9CallOpSetINS0_25CallOpSendInitialMetadataENS0_17CallOpSendMessageENS0_21CallOpClientSendCloseENS0_25CallOpRecvInitialMetadataENS0_17CallOpRecvMessageIN12GEOPMPackage11AccessListsEEENS0_22CallOpClientRecvStatusEEE@Base 2.0.0-1
 _ZTSN4grpc8internal9CallOpSetINS0_25CallOpSendInitialMetadataENS0_17CallOpSendMessageENS0_21CallOpClientSendCloseENS0_25CallOpRecvInitialMetadataENS0_17CallOpRecvMessageIN12GEOPMPackage14SignalInfoListEEENS0_22CallOpClientRecvStatusEEE@Base 2.0.0-1
 _ZTSN4grpc8internal9CallOpSetINS0_25CallOpSendInitialMetadataENS0_17CallOpSendMessageENS0_21CallOpClientSendCloseENS0_25CallOpRecvInitialMetadataENS0_17CallOpRecvMessageIN12GEOPMPackage15ControlInfoListEEENS0_22CallOpClientRecvStatusEEE@Base 2.0.0-1
 _ZTSN4grpc8internal9CallOpSetINS0_25CallOpSendInitialMetadataENS0_17CallOpSendMessageENS0_21CallOpClientSendCloseENS0_25CallOpRecvInitialMetadataENS0_17CallOpRecvMessageIN12GEOPMPackage5EmptyEEENS0_22CallOpClientRecvStatusEEE@Base 2.0.0-1
 _ZTSN4grpc8internal9CallOpSetINS0_25CallOpSendInitialMetadataENS0_17CallOpSendMessageENS0_21CallOpClientSendCloseENS0_25CallOpRecvInitialMetadataENS0_17CallOpRecvMessageIN12GEOPMPackage6SampleEEENS0_22CallOpClientRecvStatusEEE@Base 2.0.0-1
 _ZTSN4grpc8internal9CallOpSetINS0_25CallOpSendInitialMetadataENS0_17CallOpSendMessageENS0_21CallOpClientSendCloseENS0_25CallOpRecvInitialMetadataENS0_17CallOpRecvMessageIN12GEOPMPackage7PidListEEENS0_22CallOpClientRecvStatusEEE@Base 2.0.0-1
 _ZTSN4grpc8internal9CallOpSetINS0_25CallOpSendInitialMetadataENS0_17CallOpSendMessageENS0_21CallOpClientSendCloseENS0_25CallOpRecvInitialMetadataENS0_17CallOpRecvMessageIN12GEOPMPackage8BatchKeyEEENS0_22CallOpClientRecvStatusEEE@Base 2.0.0-1
 _ZTSN4grpc8internal9CallOpSetINS0_25CallOpSendInitialMetadataENS0_17CallOpSendMessageENS0_21CallOpClientSendCloseENS0_25CallOpRecvInitialMetadataENS0_17CallOpRecvMessageIN12GEOPMPackage8NameListEEENS0_22CallOpClientRecvStatusEEE@Base 2.0.0-1
 _ZTSN4grpc8internal9CallOpSetINS0_25CallOpSendInitialMetadataENS0_17CallOpSendMessageENS0_21CallOpClientSendCloseENS0_25CallOpRecvInitialMetadataENS0_17CallOpRecvMessageIN12GEOPMPackage9TopoCacheEEENS0_22CallOpClientRecvStatusEEE@Base 2.0.0-1
 _ZTSN4grpc8internal9CallOpSetINS0_25CallOpSendInitialMetadataENS0_17CallOpSendMessageENS0_21CallOpClientSendCloseENS0_25CallOpRecvInitialMetadataENS0_8CallNoOpILi5EEENS6_ILi6EEEEE@Base 2.0.0-1
 _ZTSN4grpc8internal9CallOpSetINS0_25CallOpSendInitialMetadataENS0_17CallOpSendMessageENS0_22CallOpServerSendStatusENS0_8CallNoOpILi4EEENS5_ILi5EEENS5_ILi6EEEEE@Base 2.0.0-1
 _ZTSN4grpc8internal9CallOpSetINS0_25CallOpSendInitialMetadataENS0_17CallOpSendMessageENS0_25CallOpRecvInitialMetadataENS0_17CallOpRecvMessageIN12GEOPMPackage10SessionKeyEEENS0_21CallOpClientSendCloseENS0_22CallOpClientRecvStatusEEE@Base 2.0.0-1
 _ZTSN4grpc8internal9CallOpSetINS0_25CallOpSendInitialMetadataENS0_17CallOpSendMessageENS0_25CallOpRecvInitialMetadataENS0_17CallOpRecvMessageIN12GEOPMPackage11AccessListsEEENS0_21CallOpClientSendCloseENS0_22CallOpClientRecvStatusEEE@Base 2.0.0-1
 _ZTSN4grpc8internal9CallOpSetINS0_25CallOpSendInitialMetadataENS0_17CallOpSendMessageENS0_25CallOpRecvInitialMetadataENS0_17CallOpRecvMessageIN12GEOPMPackage14SignalInfoListEEENS0_21CallOpClientSendCloseENS0_22CallOpClientRecvStatusEEE@Base 2.0.0-1
 _ZTSN4grpc8internal9CallOpSetINS0_25CallOpSendInitialMetadataENS0_17CallOpSendMessageENS0_25CallOpRecvInitialMetadataENS0_17CallOpRecvMessageIN12GEOPMPackage15ControlInfoListEEENS0_21CallOpClientSendCloseENS0_22CallOpClientRecvStatusEEE@Base 2.0.0-1
 _ZTSN4grpc8internal9CallOpSetINS0_25CallOpSendInitialMetadataENS0_17CallOpSendMessageENS0_25CallOpRecvInitialMetadataENS0_17CallOpRecvMessageIN12GEOPMPackage5EmptyEEENS0_21CallOpClientSendCloseENS0_22CallOpClientRecvStatusEEE@Base 2.0.0-1
 _ZTSN4grpc8internal9CallOpSetINS0_25CallOpSendInitialMetadataENS0_17CallOpSendMessageENS0_25CallOpRecvInitialMetadataENS0_17CallOpRecvMessageIN12GEOPMPackage6SampleEEENS0_21CallOpClientSendCloseENS0_22CallOpClientRecvStatusEEE@Base 2.0.0-1
 _ZTSN4grpc8internal9CallOpSetINS0_25CallOpSendInitialMetadataENS0_17CallOpSendMessageENS0_25CallOpRecvInitialMetadataENS0_17CallOpRecvMessageIN12GEOPMPackage7PidListEEENS0_21CallOpClientSendCloseENS0_22CallOpClientRecvStatusEEE@Base 2.0.0-1
 _ZTSN4grpc8internal9CallOpSetINS0_25CallOpSendInitialMetadataENS0_17CallOpSendMessageENS0_25CallOpRecvInitialMetadataENS0_17CallOpRecvMessageIN12GEOPMPackage8BatchKeyEEENS0_21CallOpClientSendCloseENS0_22CallOpClientRecvStatusEEE@Base 2.0.0-1
 _ZTSN4grpc8internal9CallOpSetINS0_25CallOpSendInitialMetadataENS0_17CallOpSendMessageENS0_25CallOpRecvInitialMetadataENS0_17CallOpRecvMessageIN12GEOPMPackage8NameListEEENS0_21CallOpClientSendCloseENS0_22CallOpClientRecvStatusEEE@Base 2.0.0-1
 _ZTSN4grpc8internal9CallOpSetINS0_25CallOpSendInitialMetadataENS0_17CallOpSendMessageENS0_25CallOpRecvInitialMetadataENS0_17CallOpRecvMessageIN12GEOPMPackage9TopoCacheEEENS0_21CallOpClientSendCloseENS0_22CallOpClientRecvStatusEEE@Base 2.0.0-1
 _ZTSN5geopm10CNLIOGroupE@Base 2.0.0-1
 _ZTSN5geopm10IOUringImpE@Base 2.0.0-1
 _ZTSN5geopm10MSRIOGroupE@Base 2.0.0-1
 _ZTSN5geopm10PlatformIOE@Base 2.0.0-1
 _ZTSN5geopm10SSTControlE@Base 2.0.0-1
 _ZTSN5geopm10SSTIOGroupE@Base 2.0.0-1
 _ZTSN5geopm10TimeSignalE@Base 2.0.0-1
 _ZTSN5geopm11BatchClientE@Base 2.0.0-1
 _ZTSN5geopm11BatchServerE@Base 2.0.0-1
 _ZTSN5geopm11BatchStatusE@Base 2.0.0-1
 _ZTSN5geopm11DCGMIOGroupE@Base 2.0.0-1
 _ZTSN5geopm11GPUTopoNullE@Base 2.0.0-1
 _ZTSN5geopm11NVMLGPUTopoE@Base 2.0.0-1
 _ZTSN5geopm11NVMLIOGroupE@Base 2.0.0-1
 _ZTSN5geopm11POSIXSignalE@Base 2.0.0-1
 _ZTSN5geopm11RatioSignalE@Base 2.0.0-1
 _ZTSN5geopm11SSTIoctlImpE@Base 2.0.0-1
 _ZTSN5geopm11SaveControlE@Base 2.0.0-1
 _ZTSN5geopm11TimeIOGroupE@Base 2.0.0-1
 _ZTSN5geopm12ErrorMessageE@Base 2.0.0-1
 _ZTSN5geopm12PlatformTopoE@Base 2.0.0-1
 _ZTSN5geopm12RawMSRSignalE@Base 2.0.0-1
 _ZTSN5geopm12SDBusMessageE@Base 2.0.0-1
 _ZTSN5geopm12ServiceProxyE@Base 2.0.0-1
 _ZTSN5geopm12SharedMemoryE@Base 2.0.0-1
 _ZTSN5geopm13DomainControlE@Base 2.0.0-1
 _ZTSN5geopm13PlatformIOImpE@Base 2.0.0-1
 _ZTSN5geopm13PluginFactoryINS_7IOGroupEEE@Base 2.0.0-1
 _ZTSN5geopm14BatchClientImpE@Base 2.0.0-1
 _ZTSN5geopm14BatchServerImpE@Base 2.0.0-1
 _ZTSN5geopm14BatchStatusImpE@Base 2.0.0-1
 _ZTSN5geopm14CircularBufferINS_16DerivativeSignal10m_sample_sEEE@Base 2.0.0-1
 _ZTSN5geopm14CombinedSignalE@Base 2.0.0-1
 _ZTSN5geopm14CpuinfoIOGroupE@Base 2.0.0-1
 _ZTSN5geopm14IOGroupFactoryE@Base 2.0.0-1
 _ZTSN5geopm14MSRFieldSignalE@Base 2.0.0-1
 _ZTSN5geopm14POSIXSignalImpE@Base 2.0.0-1
 _ZTSN5geopm14SaveControlImpE@Base 2.0.0-1
 _ZTSN5geopm14ServiceIOGroupE@Base 2.0.0-1
 _ZTSN5geopm15CombinedControlE@Base 2.0.0-1
 _ZTSN5geopm15IOUringFallbackE@Base 2.0.0-1
 _ZTSN5geopm15LevelZeroSignalE@Base 2.0.0-1
 _ZTSN5geopm15MSRFieldControlE@Base 2.0.0-1
 _ZTSN5geopm15PlatformTopoImpE@Base 2.0.0-1
 _ZTSN5geopm15SDBusMessageImpE@Base 2.0.0-1
 _ZTSN5geopm15ServiceProxyImpE@Base 2.0.0-1
 _ZTSN5geopm15SharedMemoryImpE@Base 2.0.0-1
 _ZTSN5geopm16DerivativeSignalE@Base 2.0.0-1
 _ZTSN5geopm16DifferenceSignalE@Base 2.0.0-1
 _ZTSN5geopm16GRPCServiceProxyE@Base 2.0.0-1
 _ZTSN5geopm16LevelZeroGPUTopoE@Base 2.0.0-1
 _ZTSN5geopm16LevelZeroIOGroupE@Base 2.0.0-1
 _ZTSN5geopm17BatchStatusClientE@Base 2.0.0-1
 _ZTSN5geopm17BatchStatusServerE@Base 2.0.0-1
 _ZTSN5geopm18ConstConfigIOGroupE@Base 2.0.0-1
 _ZTSN5geopm19LevelZeroDevicePoolE@Base 2.0.0-1
 _ZTSN5geopm20MultiplicationSignalE@Base 2.0.0-1
 _ZTSN5geopm22LevelZeroDevicePoolImpE@Base 2.0.0-1
 _ZTSN5geopm22SharedMemoryScopedLockE@Base 2.0.0-1
 _ZTSN5geopm5MSRIOE@Base 2.0.0-1
 _ZTSN5geopm5SDBusE@Base 2.0.0-1
 _ZTSN5geopm5SSTIOE@Base 2.0.0-1
 _ZTSN5geopm6SignalE@Base 2.0.0-1
 _ZTSN5geopm7ControlE@Base 2.0.0-1
 _ZTSN5geopm7GPUTopoE@Base 2.0.0-1
 _ZTSN5geopm7IOGroupE@Base 2.0.0-1
 _ZTSN5geopm7IOUringE@Base 2.0.0-1
 _ZTSN5geopm7MSRPathE@Base 2.0.0-1
 _ZTSN5geopm8MSRIOImpE@Base 2.0.0-1
 _ZTSN5geopm8SDBusImpE@Base 2.0.0-1
 _ZTSN5geopm8SSTIOImpE@Base 2.0.0-1
 _ZTSN5geopm8SSTIoctlE@Base 2.0.0-1
 _ZTSN5geopm8TimeZeroE@Base 2.0.0-1
 _ZTSN5geopm9ExceptionE@Base 2.0.0-1
 _ZTSN5geopm9SSTSignalE@Base 2.0.0-1
 _ZTSN6google8protobuf2io19ZeroCopyInputStreamE@Base 2.0.0-1
 _ZTSN6json1110JsonDoubleE@Base 2.0.0-1
 _ZTSN6json1110JsonObjectE@Base 2.0.0-1
 _ZTSN6json1110JsonStringE@Base 2.0.0-1
 _ZTSN6json1111JsonBooleanE@Base 2.0.0-1
 _ZTSN6json115ValueILNS_4Json4TypeE0ENS_10NullStructEEE@Base 2.0.0-1
 _ZTSN6json115ValueILNS_4Json4TypeE1EdEE@Base 2.0.0-1
 _ZTSN6json115ValueILNS_4Json4TypeE1EiEE@Base 2.0.0-1
 _ZTSN6json115ValueILNS_4Json4TypeE2EbEE@Base 2.0.0-1
 _ZTSN6json115ValueILNS_4Json4TypeE3ENSt7__cxx1112basic_stringIcSt11char_traitsIcESaIcEEEEE@Base 2.0.0-1
 _ZTSN6json115ValueILNS_4Json4TypeE4ESt6vectorIS1_SaIS1_EEEE@Base 2.0.0-1
 _ZTSN6json115ValueILNS_4Json4TypeE5ESt3mapINSt7__cxx1112basic_stringIcSt11char_traitsIcESaIcEEES1_St4lessIS9_ESaISt4pairIKS9_S1_EEEEE@Base 2.0.0-1
 _ZTSN6json117JsonIntE@Base 2.0.0-1
 _ZTSN6json118JsonNullE@Base 2.0.0-1
 _ZTSN6json119JsonArrayE@Base 2.0.0-1
 _ZTSN6json119JsonValueE@Base 2.0.0-1
 _ZTSN9grpc_impl15CompletionQueueE@Base 2.0.0-1
 _ZTSN9grpc_impl19ClientCallbackUnaryE@Base 2.0.0-1
 _ZTSN9grpc_impl25ClientAsyncResponseReaderIN12GEOPMPackage10SessionKeyEEE@Base 2.0.0-1
 _ZTSN9grpc_impl25ClientAsyncResponseReaderIN12GEOPMPackage11AccessListsEEE@Base 2.0.0-1
 _ZTSN9grpc_impl25ClientAsyncResponseReaderIN12GEOPMPackage14SignalInfoListEEE@Base 2.0.0-1
 _ZTSN9grpc_impl25ClientAsyncResponseReaderIN12GEOPMPackage15ControlInfoListEEE@Base 2.0.0-1
 _ZTSN9grpc_impl25ClientAsyncResponseReaderIN12GEOPMPackage5EmptyEEE@Base 2.0.0-1
 _ZTSN9grpc_impl25ClientAsyncResponseReaderIN12GEOPMPackage6SampleEEE@Base 2.0.0-1
 _ZTSN9grpc_impl25ClientAsyncResponseReaderIN12GEOPMPackage7PidListEEE@Base 2.0.0-1
 _ZTSN9grpc_impl25ClientAsyncResponseReaderIN12GEOPMPackage8BatchKeyEEE@Base 2.0.0-1
 _ZTSN9grpc_impl25ClientAsyncResponseReaderIN12GEOPMPackage8NameListEEE@Base 2.0.0-1
 _ZTSN9grpc_impl25ClientAsyncResponseReaderIN12GEOPMPackage9TopoCacheEEE@Base 2.0.0-1
 _ZTSN9grpc_impl34ClientAsyncResponseReaderInterfaceIN12GEOPMPackage10SessionKeyEEE@Base 2.0.0-1
 _ZTSN9grpc_impl34ClientAsyncResponseReaderInterfaceIN12GEOPMPackage11AccessListsEEE@Base 2.0.0-1
 _ZTSN9grpc_impl34ClientAsyncResponseReaderInterfaceIN12GEOPMPackage14SignalInfoListEEE@Base 2.0.0-1
 _ZTSN9grpc_impl34ClientAsyncResponseReaderInterfaceIN12GEOPMPackage15ControlInfoListEEE@Base 2.0.0-1
 _ZTSN9grpc_impl34ClientAsyncResponseReaderInterfaceIN12GEOPMPackage5EmptyEEE@Base 2.0.0-1
 _ZTSN9grpc_impl34ClientAsyncResponseReaderInterfaceIN12GEOPMPackage6SampleEEE@Base 2.0.0-1
 _ZTSN9grpc_impl34ClientAsyncResponseReaderInterfaceIN12GEOPMPackage7PidListEEE@Base 2.0.0-1
 _ZTSN9grpc_impl34ClientAsyncResponseReaderInterfaceIN12GEOPMPackage8BatchKeyEEE@Base 2.0.0-1
 _ZTSN9grpc_impl34ClientAsyncResponseReaderInterfaceIN12GEOPMPackage8NameListEEE@Base 2.0.0-1
 _ZTSN9grpc_impl34ClientAsyncResponseReaderInterfaceIN12GEOPMPackage9TopoCacheEEE@Base 2.0.0-1
 _ZTSN9grpc_impl8internal16RpcMethodHandlerIN12GEOPMPackage12GEOPMService7ServiceENS2_10SessionKeyENS2_11AccessListsEEE@Base 2.0.0-1
 _ZTSN9grpc_impl8internal16RpcMethodHandlerIN12GEOPMPackage12GEOPMService7ServiceENS2_10SessionKeyENS2_5EmptyEEE@Base 2.0.0-1
 _ZTSN9grpc_impl8internal16RpcMethodHandlerIN12GEOPMPackage12GEOPMService7ServiceENS2_10SessionKeyES5_EE@Base 2.0.0-1
 _ZTSN9grpc_impl8internal16RpcMethodHandlerIN12GEOPMPackage12GEOPMService7ServiceENS2_11InfoRequestENS2_14SignalInfoListEEE@Base 2.0.0-1
 _ZTSN9grpc_impl8internal16RpcMethodHandlerIN12GEOPMPackage12GEOPMService7ServiceENS2_11InfoRequestENS2_15ControlInfoListEEE@Base 2.0.0-1
 _ZTSN9grpc_impl8internal16RpcMethodHandlerIN12GEOPMPackage12GEOPMService7ServiceENS2_11ReadRequestENS2_6SampleEEE@Base 2.0.0-1
 _ZTSN9grpc_impl8internal16RpcMethodHandlerIN12GEOPMPackage12GEOPMService7ServiceENS2_12BatchRequestENS2_8BatchKeyEEE@Base 2.0.0-1
 _ZTSN9grpc_impl8internal16RpcMethodHandlerIN12GEOPMPackage12GEOPMService7ServiceENS2_12BatchSessionENS2_5EmptyEEE@Base 2.0.0-1
 _ZTSN9grpc_impl8internal16RpcMethodHandlerIN12GEOPMPackage12GEOPMService7ServiceENS2_12WriteRequestENS2_5EmptyEEE@Base 2.0.0-1
 _ZTSN9grpc_impl8internal16RpcMethodHandlerIN12GEOPMPackage12GEOPMService7ServiceENS2_14ProfileRequestENS2_5EmptyEEE@Base 2.0.0-1
 _ZTSN9grpc_impl8internal16RpcMethodHandlerIN12GEOPMPackage12GEOPMService7ServiceENS2_14ProfileRequestENS2_7PidListEEE@Base 2.0.0-1
 _ZTSN9grpc_impl8internal16RpcMethodHandlerIN12GEOPMPackage12GEOPMService7ServiceENS2_14ProfileRequestENS2_8NameListEEE@Base 2.0.0-1
 _ZTSN9grpc_impl8internal16RpcMethodHandlerIN12GEOPMPackage12GEOPMService7ServiceENS2_5EmptyENS2_9TopoCacheEEE@Base 2.0.0-1
 _ZTSN9grpc_impl8internal23ClientCallbackUnaryImplE@Base 2.0.0-1
 _ZTSPFNSt7__cxx1112basic_stringIcSt11char_traitsIcESaIcEEEdE@Base 2.0.0-1
 _ZTSPFSt10unique_ptrIN5geopm7IOGroupESt14default_deleteIS1_EEvE@Base 2.0.0-1
 _ZTSPFbRKN6json114JsonEE@Base 2.0.0-1
 _ZTSPFdRKSt6vectorIdSaIdEEE@Base 2.0.0-1
 _ZTSSt11_Mutex_baseILN9__gnu_cxx12_Lock_policyE2EE@Base 2.0.0-1
 _ZTSSt14default_deleteIN5geopm11BatchClientEE@Base 2.0.0-1
 _ZTSSt14default_deleteIN5geopm11BatchServerEE@Base 2.0.0-1
 _ZTSSt14default_deleteIN5geopm11BatchStatusEE@Base 2.0.0-1
 _ZTSSt14default_deleteIN5geopm11POSIXSignalEE@Base 2.0.0-1
 _ZTSSt14default_deleteIN5geopm11SaveControlEE@Base 2.0.0-1
 _ZTSSt14default_deleteIN5geopm12SDBusMessageEE@Base 2.0.0-1
 _ZTSSt14default_deleteIN5geopm12ServiceProxyEE@Base 2.0.0-1
 _ZTSSt14default_deleteIN5geopm12SharedMemoryEE@Base 2.0.0-1
 _ZTSSt14default_deleteIN5geopm14MSRFieldSignalEE@Base 2.0.0-1
 _ZTSSt14default_deleteIN5geopm5SDBusEE@Base 2.0.0-1
 _ZTSSt14default_deleteIN5geopm7IOGroupEE@Base 2.0.0-1
 _ZTSSt14default_deleteIN5geopm7IOUringEE@Base 2.0.0-1
 _ZTSSt15_Sp_counted_ptrIPiLN9__gnu_cxx12_Lock_policyE2EE@Base 2.0.0-1
 _ZTSSt16_Sp_counted_baseILN9__gnu_cxx12_Lock_policyE2EE@Base 2.0.0-1
 _ZTSSt17_Weak_result_typeIMN5geopm10CNLIOGroupEKFdRKNSt7__cxx1112basic_stringIcSt11char_traitsIcESaIcEEEEE@Base 2.0.0-1
 _ZTSSt17_Weak_result_typeIMN5geopm10CNLIOGroupEdE@Base 2.0.0-1
 _ZTSSt17_Weak_result_typeIPFdRKNSt7__cxx1112basic_stringIcSt11char_traitsIcESaIcEEES7_EE@Base 2.0.0-1
 _ZTSSt17_Weak_result_typeIPFliPKvmlEE@Base 2.0.0-1
 _ZTSSt17_Weak_result_typeIPFliPvmlEE@Base 2.0.0-1
 _ZTSSt19_Sp_counted_deleterIPN5geopm11BatchClientESt14default_deleteIS1_ESaIvELN9__gnu_cxx12_Lock_policyE2EE@Base 2.0.0-1
 _ZTSSt19_Sp_counted_deleterIPN5geopm11BatchServerESt14default_deleteIS1_ESaIvELN9__gnu_cxx12_Lock_policyE2EE@Base 2.0.0-1
 _ZTSSt19_Sp_counted_deleterIPN5geopm11BatchStatusESt14default_deleteIS1_ESaIvELN9__gnu_cxx12_Lock_policyE2EE@Base 2.0.0-1
 _ZTSSt19_Sp_counted_deleterIPN5geopm11POSIXSignalESt14default_deleteIS1_ESaIvELN9__gnu_cxx12_Lock_policyE2EE@Base 2.0.0-1
 _ZTSSt19_Sp_counted_deleterIPN5geopm11SaveControlESt14default_deleteIS1_ESaIvELN9__gnu_cxx12_Lock_policyE2EE@Base 2.0.0-1
 _ZTSSt19_Sp_counted_deleterIPN5geopm12SDBusMessageESt14default_deleteIS1_ESaIvELN9__gnu_cxx12_Lock_policyE2EE@Base 2.0.0-1
 _ZTSSt19_Sp_counted_deleterIPN5geopm12ServiceProxyESt14default_deleteIS1_ESaIvELN9__gnu_cxx12_Lock_policyE2EE@Base 2.0.0-1
 _ZTSSt19_Sp_counted_deleterIPN5geopm12SharedMemoryESt14default_deleteIS1_ESaIvELN9__gnu_cxx12_Lock_policyE2EE@Base 2.0.0-1
 _ZTSSt19_Sp_counted_deleterIPN5geopm14MSRFieldSignalESt14default_deleteIS1_ESaIvELN9__gnu_cxx12_Lock_policyE2EE@Base 2.0.0-1
 _ZTSSt19_Sp_counted_deleterIPN5geopm5SDBusESt14default_deleteIS1_ESaIvELN9__gnu_cxx12_Lock_policyE2EE@Base 2.0.0-1
 _ZTSSt19_Sp_counted_deleterIPN5geopm7IOGroupESt14default_deleteIS1_ESaIvELN9__gnu_cxx12_Lock_policyE2EE@Base 2.0.0-1
 _ZTSSt19_Sp_counted_deleterIPN5geopm7IOUringESt14default_deleteIS1_ESaIvELN9__gnu_cxx12_Lock_policyE2EE@Base 2.0.0-1
 _ZTSSt19_Sp_make_shared_tag@Base 2.0.0-1
 _ZTSSt22_Weak_result_type_implIPFdRKNSt7__cxx1112basic_stringIcSt11char_traitsIcESaIcEEES7_EE@Base 2.0.0-1
 _ZTSSt22_Weak_result_type_implIPFliPKvmlEE@Base 2.0.0-1
 _ZTSSt22_Weak_result_type_implIPFliPvmlEE@Base 2.0.0-1
 _ZTSSt23_Sp_counted_ptr_inplaceI12geopm_time_sSaIvELN9__gnu_cxx12_Lock_policyE2EE@Base 2.0.0-1
 _ZTSSt23_Sp_counted_ptr_inplaceIN12GEOPMPackage12GEOPMService4StubESaIvELN9__gnu_cxx12_Lock_policyE2EE@Base 2.0.0-1
 _ZTSSt23_Sp_counted_ptr_inplaceIN5geopm10SSTControlESaIvELN9__gnu_cxx12_Lock_policyE2EE@Base 2.0.0-1
 _ZTSSt23_Sp_counted_ptr_inplaceIN5geopm10TimeSignalESaIvELN9__gnu_cxx12_Lock_policyE2EE@Base 2.0.0-1
 _ZTSSt23_Sp_counted_ptr_inplaceIN5geopm11DCGMIOGroup8signal_sESaIvELN9__gnu_cxx12_Lock_policyE2EE@Base 2.0.0-1
 _ZTSSt23_Sp_counted_ptr_inplaceIN5geopm11DCGMIOGroup9control_sESaIvELN9__gnu_cxx12_Lock_policyE2EE@Base 2.0.0-1
 _ZTSSt23_Sp_counted_ptr_inplaceIN5geopm11NVMLIOGroup8signal_sESaIvELN9__gnu_cxx12_Lock_policyE2EE@Base 2.0.0-1
 _ZTSSt23_Sp_counted_ptr_inplaceIN5geopm11NVMLIOGroup9control_sESaIvELN9__gnu_cxx12_Lock_policyE2EE@Base 2.0.0-1
 _ZTSSt23_Sp_counted_ptr_inplaceIN5geopm11RatioSignalESaIvELN9__gnu_cxx12_Lock_policyE2EE@Base 2.0.0-1
 _ZTSSt23_Sp_counted_ptr_inplaceIN5geopm11SSTIoctlImpESaIvELN9__gnu_cxx12_Lock_policyE2EE@Base 2.0.0-1
 _ZTSSt23_Sp_counted_ptr_inplaceIN5geopm12RawMSRSignalESaIvELN9__gnu_cxx12_Lock_policyE2EE@Base 2.0.0-1
 _ZTSSt23_Sp_counted_ptr_inplaceIN5geopm13DomainControlESaIvELN9__gnu_cxx12_Lock_policyE2EE@Base 2.0.0-1
 _ZTSSt23_Sp_counted_ptr_inplaceIN5geopm14MSRFieldSignalESaIvELN9__gnu_cxx12_Lock_policyE2EE@Base 2.0.0-1
 _ZTSSt23_Sp_counted_ptr_inplaceIN5geopm15LevelZeroSignalESaIvELN9__gnu_cxx12_Lock_policyE2EE@Base 2.0.0-1
 _ZTSSt23_Sp_counted_ptr_inplaceIN5geopm15MSRFieldControlESaIvELN9__gnu_cxx12_Lock_policyE2EE@Base 2.0.0-1
 _ZTSSt23_Sp_counted_ptr_inplaceIN5geopm16DerivativeSignalESaIvELN9__gnu_cxx12_Lock_policyE2EE@Base 2.0.0-1
 _ZTSSt23_Sp_counted_ptr_inplaceIN5geopm16DifferenceSignalESaIvELN9__gnu_cxx12_Lock_policyE2EE@Base 2.0.0-1
 _ZTSSt23_Sp_counted_ptr_inplaceIN5geopm16LevelZeroIOGroup9control_sESaIvELN9__gnu_cxx12_Lock_policyE2EE@Base 2.0.0-1
 _ZTSSt23_Sp_counted_ptr_inplaceIN5geopm18ConstConfigIOGroup15m_signal_info_sESaIvELN9__gnu_cxx12_Lock_policyE2EE@Base 2.0.0-1
 _ZTSSt23_Sp_counted_ptr_inplaceIN5geopm20MultiplicationSignalESaIvELN9__gnu_cxx12_Lock_policyE2EE@Base 2.0.0-1
 _ZTSSt23_Sp_counted_ptr_inplaceIN5geopm7MSRPathESaIvELN9__gnu_cxx12_Lock_policyE2EE@Base 2.0.0-1
 _ZTSSt23_Sp_counted_ptr_inplaceIN5geopm8MSRIOImpESaIvELN9__gnu_cxx12_Lock_policyE2EE@Base 2.0.0-1
 _ZTSSt23_Sp_counted_ptr_inplaceIN5geopm8SSTIOImpESaIvELN9__gnu_cxx12_Lock_policyE2EE@Base 2.0.0-1
 _ZTSSt23_Sp_counted_ptr_inplaceIN5geopm9SSTSignalESaIvELN9__gnu_cxx12_Lock_policyE2EE@Base 2.0.0-1
 _ZTSSt23_Sp_counted_ptr_inplaceIN6json1110JsonDoubleESaIvELN9__gnu_cxx12_Lock_policyE2EE@Base 2.0.0-1
 _ZTSSt23_Sp_counted_ptr_inplaceIN6json1110JsonObjectESaIvELN9__gnu_cxx12_Lock_policyE2EE@Base 2.0.0-1
 _ZTSSt23_Sp_counted_ptr_inplaceIN6json1110JsonStringESaIvELN9__gnu_cxx12_Lock_policyE2EE@Base 2.0.0-1
 _ZTSSt23_Sp_counted_ptr_inplaceIN6json1111JsonBooleanESaIvELN9__gnu_cxx12_Lock_policyE2EE@Base 2.0.0-1
 _ZTSSt23_Sp_counted_ptr_inplaceIN6json117JsonIntESaIvELN9__gnu_cxx12_Lock_policyE2EE@Base 2.0.0-1
 _ZTSSt23_Sp_counted_ptr_inplaceIN6json118JsonNullESaIvELN9__gnu_cxx12_Lock_policyE2EE@Base 2.0.0-1
 _ZTSSt23_Sp_counted_ptr_inplaceIN6json119JsonArrayESaIvELN9__gnu_cxx12_Lock_policyE2EE@Base 2.0.0-1
 _ZTSSt23_Sp_counted_ptr_inplaceIdSaIvELN9__gnu_cxx12_Lock_policyE2EE@Base 2.0.0-1
 _ZTSSt24_Weak_result_type_memfunIMN5geopm10CNLIOGroupEKFdRKNSt7__cxx1112basic_stringIcSt11char_traitsIcESaIcEEEELb1EE@Base 2.0.0-1
 _ZTSSt24_Weak_result_type_memfunIMN5geopm10CNLIOGroupEdLb0EE@Base 2.0.0-1
 _ZTSSt24_Weak_result_type_memfunIPFdRKNSt7__cxx1112basic_stringIcSt11char_traitsIcESaIcEEES7_ELb0EE@Base 2.0.0-1
 _ZTSSt24_Weak_result_type_memfunIPFliPKvmlELb0EE@Base 2.0.0-1
 _ZTSSt24_Weak_result_type_memfunIPFliPvmlELb0EE@Base 2.0.0-1
 _ZTSSt5_BindIFMN5geopm10CNLIOGroupEKFdRKNSt7__cxx1112basic_stringIcSt11char_traitsIcESaIcEEEEPS1_S7_EE@Base 2.0.0-1
 _ZTSSt5_BindIFMN5geopm10CNLIOGroupEdPS1_EE@Base 2.0.0-1
 _ZTSSt5_BindIFPFdRKNSt7__cxx1112basic_stringIcSt11char_traitsIcESaIcEEES7_ES5_S5_EE@Base 2.0.0-1
 _ZTSSt5_BindIFPFliPKvmlEiS1_jlEE@Base 2.0.0-1
 _ZTSSt5_BindIFPFliPvmlEiS0_jlEE@Base 2.0.0-1
 _ZTSZN4grpc8internal17CallOpSendMessage11SendMessageIN12GEOPMPackage10SessionKeyEEENS_6StatusERKT_NS_12WriteOptionsEEUlPKvE_@Base 2.0.0-1
 _ZTSZN4grpc8internal17CallOpSendMessage11SendMessageIN12GEOPMPackage11AccessListsEEENS_6StatusERKT_NS_12WriteOptionsEEUlPKvE_@Base 2.0.0-1
 _ZTSZN4grpc8internal17CallOpSendMessage11SendMessageIN12GEOPMPackage11InfoRequestEEENS_6StatusERKT_NS_12WriteOptionsEEUlPKvE_@Base 2.0.0-1
 _ZTSZN4grpc8internal17CallOpSendMessage11SendMessageIN12GEOPMPackage11ReadRequestEEENS_6StatusERKT_NS_12WriteOptionsEEUlPKvE_@Base 2.0.0-1
 _ZTSZN4grpc8internal17CallOpSendMessage11SendMessageIN12GEOPMPackage12BatchRequestEEENS_6StatusERKT_NS_12WriteOptionsEEUlPKvE_@Base 2.0.0-1
 _ZTSZN4grpc8internal17CallOpSendMessage11SendMessageIN12GEOPMPackage12BatchSessionEEENS_6StatusERKT_NS_12WriteOptionsEEUlPKvE_@Base 2.0.0-1
 _ZTSZN4grpc8internal17CallOpSendMessage11SendMessageIN12GEOPMPackage12WriteRequestEEENS_6StatusERKT_NS_12WriteOptionsEEUlPKvE_@Base 2.0.0-1
 _ZTSZN4grpc8internal17CallOpSendMessage11SendMessageIN12GEOPMPackage14ProfileRequestEEENS_6StatusERKT_NS_12WriteOptionsEEUlPKvE_@Base 2.0.0-1
 _ZTSZN4grpc8internal17CallOpSendMessage11SendMessageIN12GEOPMPackage14SignalInfoListEEENS_6StatusERKT_NS_12WriteOptionsEEUlPKvE_@Base 2.0.0-1
 _ZTSZN4grpc8internal17CallOpSendMessage11SendMessageIN12GEOPMPackage15ControlInfoListEEENS_6StatusERKT_NS_12WriteOptionsEEUlPKvE_@Base 2.0.0-1
 _ZTSZN4grpc8internal17CallOpSendMessage11SendMessageIN12GEOPMPackage5EmptyEEENS_6StatusERKT_NS_12WriteOptionsEEUlPKvE_@Base 2.0.0-1
 _ZTSZN4grpc8internal17CallOpSendMessage11SendMessageIN12GEOPMPackage6SampleEEENS_6StatusERKT_NS_12WriteOptionsEEUlPKvE_@Base 2.0.0-1
 _ZTSZN4grpc8internal17CallOpSendMessage11SendMessageIN12GEOPMPackage7PidListEEENS_6StatusERKT_NS_12WriteOptionsEEUlPKvE_@Base 2.0.0-1
 _ZTSZN4grpc8internal17CallOpSendMessage11SendMessageIN12GEOPMPackage8BatchKeyEEENS_6StatusERKT_NS_12WriteOptionsEEUlPKvE_@Base 2.0.0-1
 _ZTSZN4grpc8internal17CallOpSendMessage11SendMessageIN12GEOPMPackage8NameListEEENS_6StatusERKT_NS_12WriteOptionsEEUlPKvE_@Base 2.0.0-1
 _ZTSZN4grpc8internal17CallOpSendMessage11SendMessageIN12GEOPMPackage9TopoCacheEEENS_6StatusERKT_NS_12WriteOptionsEEUlPKvE_@Base 2.0.0-1
 _ZTSZN4grpc8internal17CallOpSendMessage11SendMessageINS_10ByteBufferEEENS_6StatusERKT_NS_12WriteOptionsEEUlPKvE_@Base 2.0.0-1
 _ZTSZN9grpc_impl8internal23ClientCallbackUnaryImpl9StartCallEvEUlbE0_@Base 2.0.0-1
 _ZTSZN9grpc_impl8internal23ClientCallbackUnaryImpl9StartCallEvEUlbE_@Base 2.0.0-1
 _ZTVN12GEOPMPackage10SessionKeyE@Base 2.0.0-1
 _ZTVN12GEOPMPackage11AccessListsE@Base 2.0.0-1
 _ZTVN12GEOPMPackage11InfoRequestE@Base 2.0.0-1
 _ZTVN12GEOPMPackage11ReadRequestE@Base 2.0.0-1
 _ZTVN12GEOPMPackage12BatchRequestE@Base 2.0.0-1
 _ZTVN12GEOPMPackage12BatchSessionE@Base 2.0.0-1
 _ZTVN12GEOPMPackage12GEOPMService4Stub18experimental_asyncE@Base 2.0.0-1
 _ZTVN12GEOPMPackage12GEOPMService4StubE@Base 2.0.0-1
 _ZTVN12GEOPMPackage12GEOPMService7ServiceE@Base 2.0.0-1
 _ZTVN12GEOPMPackage12WriteRequestE@Base 2.0.0-1
 _ZTVN12GEOPMPackage14ProfileRequestE@Base 2.0.0-1
 _ZTVN12GEOPMPackage14SignalInfoListE@Base 2.0.0-1
 _ZTVN12GEOPMPackage15ControlInfoListE@Base 2.0.0-1
 _ZTVN12GEOPMPackage15PlatformRequestE@Base 2.0.0-1
 _ZTVN12GEOPMPackage25SignalInfoList_SignalInfoE@Base 2.0.0-1
 _ZTVN12GEOPMPackage27ControlInfoList_ControlInfoE@Base 2.0.0-1
 _ZTVN12GEOPMPackage5EmptyE@Base 2.0.0-1
 _ZTVN12GEOPMPackage6SampleE@Base 2.0.0-1
 _ZTVN12GEOPMPackage7PidListE@Base 2.0.0-1
 _ZTVN12GEOPMPackage8BatchKeyE@Base 2.0.0-1
 _ZTVN12GEOPMPackage8NameListE@Base 2.0.0-1
 _ZTVN12GEOPMPackage9TopoCacheE@Base 2.0.0-1
 _ZTVN5geopm10CNLIOGroupE@Base 2.0.0-1
 _ZTVN5geopm10IOUringImpE@Base 2.0.0-1
 _ZTVN5geopm10MSRIOGroupE@Base 2.0.0-1
 _ZTVN5geopm10SSTControlE@Base 2.0.0-1
 _ZTVN5geopm10SSTIOGroupE@Base 2.0.0-1
 _ZTVN5geopm10TimeSignalE@Base 2.0.0-1
 _ZTVN5geopm11DCGMIOGroupE@Base 2.0.0-1
 _ZTVN5geopm11GPUTopoNullE@Base 2.0.0-1
 _ZTVN5geopm11NVMLGPUTopoE@Base 2.0.0-1
 _ZTVN5geopm11NVMLIOGroupE@Base 2.0.0-1
 _ZTVN5geopm11RatioSignalE@Base 2.0.0-1
 _ZTVN5geopm11SSTIoctlImpE@Base 2.0.0-1
 _ZTVN5geopm11TimeIOGroupE@Base 2.0.0-1
 _ZTVN5geopm12RawMSRSignalE@Base 2.0.0-1
 _ZTVN5geopm13DomainControlE@Base 2.0.0-1
 _ZTVN5geopm13PlatformIOImpE@Base 2.0.0-1
 _ZTVN5geopm14BatchClientImpE@Base 2.0.0-1
 _ZTVN5geopm14BatchServerImpE@Base 2.0.0-1
 _ZTVN5geopm14BatchStatusImpE@Base 2.0.0-1
 _ZTVN5geopm14CombinedSignalE@Base 2.0.0-1
 _ZTVN5geopm14CpuinfoIOGroupE@Base 2.0.0-1
 _ZTVN5geopm14MSRFieldSignalE@Base 2.0.0-1
 _ZTVN5geopm14POSIXSignalImpE@Base 2.0.0-1
 _ZTVN5geopm14SaveControlImpE@Base 2.0.0-1
 _ZTVN5geopm14ServiceIOGroupE@Base 2.0.0-1
 _ZTVN5geopm15CombinedControlE@Base 2.0.0-1
 _ZTVN5geopm15IOUringFallbackE@Base 2.0.0-1
 _ZTVN5geopm15LevelZeroSignalE@Base 2.0.0-1
 _ZTVN5geopm15MSRFieldControlE@Base 2.0.0-1
 _ZTVN5geopm15PlatformTopoImpE@Base 2.0.0-1
 _ZTVN5geopm15SDBusMessageImpE@Base 2.0.0-1
 _ZTVN5geopm15ServiceProxyImpE@Base 2.0.0-1
 _ZTVN5geopm15SharedMemoryImpE@Base 2.0.0-1
 _ZTVN5geopm16DerivativeSignalE@Base 2.0.0-1
 _ZTVN5geopm16DifferenceSignalE@Base 2.0.0-1
 _ZTVN5geopm16GRPCServiceProxyE@Base 2.0.0-1
 _ZTVN5geopm16LevelZeroGPUTopoE@Base 2.0.0-1
 _ZTVN5geopm16LevelZeroIOGroupE@Base 2.0.0-1
 _ZTVN5geopm17BatchStatusClientE@Base 2.0.0-1
 _ZTVN5geopm17BatchStatusServerE@Base 2.0.0-1
 _ZTVN5geopm18ConstConfigIOGroupE@Base 2.0.0-1
 _ZTVN5geopm20MultiplicationSignalE@Base 2.0.0-1
 _ZTVN5geopm22LevelZeroDevicePoolImpE@Base 2.0.0-1
 _ZTVN5geopm22SharedMemoryScopedLockE@Base 2.0.0-1
 _ZTVN5geopm7IOGroupE@Base 2.0.0-1
 _ZTVN5geopm7MSRPathE@Base 2.0.0-1
 _ZTVN5geopm8MSRIOImpE@Base 2.0.0-1
 _ZTVN5geopm8SDBusImpE@Base 2.0.0-1
 _ZTVN5geopm8SSTIOImpE@Base 2.0.0-1
 _ZTVN5geopm9SSTSignalE@Base 2.0.0-1
 _ZTVN6json1110JsonObjectE@Base 2.0.0-1
 _ZTVN6json119JsonArrayE@Base 2.0.0-1
 _ZTVN6json119JsonValueE@Base 2.0.0-1
 _ZZN5geopm8SSTIOImp25ioctl_structs_from_vectorINS_26sst_mbox_interface_batch_sEEESt6vectorISt10unique_ptrIT_PFvPS5_EESaIS9_EERKS3_INSt18remove_all_extentsIDtsrS5_10interfacesEE4typeESaISF_EEENUlPS2_E_4_FUNESK_@Base 2.0.0-1
 _ZZN5geopm8SSTIOImp25ioctl_structs_from_vectorINS_26sst_mmio_interface_batch_sEEESt6vectorISt10unique_ptrIT_PFvPS5_EESaIS9_EERKS3_INSt18remove_all_extentsIDtsrS5_10interfacesEE4typeESaISF_EEENUlPS2_E_4_FUNESK_@Base 2.0.0-1
 _ZZN5geopm8SSTIOImp25ioctl_structs_from_vectorINS_29sst_cpu_map_interface_batch_sEEESt6vectorISt10unique_ptrIT_PFvPS5_EESaIS9_EERKS3_INSt18remove_all_extentsIDtsrS5_10interfacesEE4typeESaISF_EEENUlPS2_E_4_FUNESK_@Base 2.0.0-1
 _ZZNSt19_Sp_make_shared_tag5_S_tiEvE5__tag@Base 2.0.0-1
 _ZZNSt9once_flag18_Prepare_executionC4IZSt9call_onceIRFvRKNSt7__cxx1112basic_stringIcSt11char_traitsIcESaIcEEEEJSA_EEvRS_OT_DpOT0_EUlvE_EERSE_ENUlvE_4_FUNEv@Base 2.0.0-1
 descriptor_table_geopm_5fservice_2eproto@Base 2.0.0-1
 geopm_crc32_str@Base 2.0.0-1
 geopm_crc32_u64@Base 2.0.0-1
 geopm_error_message@Base 2.0.0-1
 geopm_pio_adjust@Base 2.0.0-1
 geopm_pio_check_valid_value@Base 2.0.0-1
 geopm_pio_control_description@Base 2.0.0-1
 geopm_pio_control_domain_type@Base 2.0.0-1
 geopm_pio_control_name@Base 2.0.0-1
 geopm_pio_format_signal@Base 2.0.0-1
 geopm_pio_num_control_name@Base 2.0.0-1
 geopm_pio_num_signal_name@Base 2.0.0-1
 geopm_pio_profile_pids@Base 2.0.0-1
 geopm_pio_push_control@Base 2.0.0-1
 geopm_pio_push_signal@Base 2.0.0-1
 geopm_pio_read_batch@Base 2.0.0-1
 geopm_pio_read_signal@Base 2.0.0-1
 geopm_pio_reset@Base 2.0.0-1
 geopm_pio_restore_control@Base 2.0.0-1
 geopm_pio_restore_control_dir@Base 2.0.0-1
 geopm_pio_sample@Base 2.0.0-1
 geopm_pio_save_control@Base 2.0.0-1
 geopm_pio_save_control_dir@Base 2.0.0-1
 geopm_pio_signal_description@Base 2.0.0-1
 geopm_pio_signal_domain_type@Base 2.0.0-1
 geopm_pio_signal_info@Base 2.0.0-1
 geopm_pio_signal_name@Base 2.0.0-1
 geopm_pio_start_batch_server@Base 2.0.0-1
 geopm_pio_stop_batch_server@Base 2.0.0-1
 geopm_pio_write_batch@Base 2.0.0-1
 geopm_pio_write_control@Base 2.0.0-1
 geopm_read_cpuid@Base 2.0.0-1
 geopm_sched_get_cpu@Base 2.0.0-1
 geopm_sched_num_cpu@Base 2.0.0-1
 geopm_sched_proc_cpuset@Base 2.0.0-1
 geopm_sched_proc_cpuset_helper@Base 2.0.0-1
 geopm_sched_proc_cpuset_pid@Base 2.0.0-1
 geopm_sched_woomp@Base 2.0.0-1
 geopm_shmem_create_prof@Base 2.0.0-1
 geopm_shmem_path_prof@Base 2.0.0-1
 geopm_time_zero@Base 2.0.0-1
 geopm_topo_create_cache@Base 2.0.0-1
 geopm_topo_domain_idx@Base 2.0.0-1
 geopm_topo_domain_name@Base 2.0.0-1
 geopm_topo_domain_nested@Base 2.0.0-1
 geopm_topo_domain_type@Base 2.0.0-1
 geopm_topo_num_domain@Base 2.0.0-1
 geopm_topo_num_domain_nested@Base 2.0.0-1
 geopm_version@Base 2.0.0-1
 scc_info_AccessLists_geopm_5fservice_2eproto@Base 2.0.0-1
 scc_info_BatchKey_geopm_5fservice_2eproto@Base 2.0.0-1
 scc_info_BatchRequest_geopm_5fservice_2eproto@Base 2.0.0-1
 scc_info_BatchSession_geopm_5fservice_2eproto@Base 2.0.0-1
 scc_info_ControlInfoList_ControlInfo_geopm_5fservice_2eproto@Base 2.0.0-1
 scc_info_ControlInfoList_geopm_5fservice_2eproto@Base 2.0.0-1
 scc_info_Empty_geopm_5fservice_2eproto@Base 2.0.0-1
 scc_info_InfoRequest_geopm_5fservice_2eproto@Base 2.0.0-1
 scc_info_NameList_geopm_5fservice_2eproto@Base 2.0.0-1
 scc_info_PidList_geopm_5fservice_2eproto@Base 2.0.0-1
 scc_info_PlatformRequest_geopm_5fservice_2eproto@Base 2.0.0-1
 scc_info_ProfileRequest_geopm_5fservice_2eproto@Base 2.0.0-1
 scc_info_ReadRequest_geopm_5fservice_2eproto@Base 2.0.0-1
 scc_info_Sample_geopm_5fservice_2eproto@Base 2.0.0-1
 scc_info_SessionKey_geopm_5fservice_2eproto@Base 2.0.0-1
 scc_info_SignalInfoList_SignalInfo_geopm_5fservice_2eproto@Base 2.0.0-1
 scc_info_SignalInfoList_geopm_5fservice_2eproto@Base 2.0.0-1
 scc_info_TopoCache_geopm_5fservice_2eproto@Base 2.0.0-1
 scc_info_WriteRequest_geopm_5fservice_2eproto@Base 2.0.0-1
